   1              		.syntax unified
   2              		.cpu cortex-m3
   3              		.fpu softvfp
   4              		.eabi_attribute 20, 1
   5              		.eabi_attribute 21, 1
   6              		.eabi_attribute 23, 3
   7              		.eabi_attribute 24, 1
   8              		.eabi_attribute 25, 1
   9              		.eabi_attribute 26, 1
  10              		.eabi_attribute 30, 4
  11              		.eabi_attribute 34, 1
  12              		.eabi_attribute 18, 4
  13              		.thumb
  14              		.file	"drv_systick.c"
  15              		.section	.text.delay_250us,"ax",%progbits
  16              		.align	1
  17              		.thumb
  18              		.thumb_func
  20              	delay_250us:
  21              		@ args = 0, pretend = 0, frame = 0
  22              		@ frame_needed = 0, uses_anonymous_args = 0
  23 0000 104B     		ldr	r3, .L11
  24 0002 10B5     		push	{r4, lr}
  25 0004 1C68     		ldr	r4, [r3]
  26 0006 104B     		ldr	r3, .L11+4
  27 0008 1049     		ldr	r1, .L11+8
  28 000a B4FBF3F3 		udiv	r3, r4, r3
  29 000e 5843     		muls	r0, r3, r0
  30 0010 8A68     		ldr	r2, [r1, #8]
  31 0012 2A38     		subs	r0, r0, #42
  32 0014 9042     		cmp	r0, r2
  33 0016 8B68     		ldr	r3, [r1, #8]
  34 0018 0C46     		mov	r4, r1
  35 001a 07D8     		bhi	.L2
  36 001c 101A     		subs	r0, r2, r0
  37              	.L3:
  38 001e 9342     		cmp	r3, r2
  39 0020 0ED2     		bcs	.L1
  40 0022 8342     		cmp	r3, r0
  41 0024 01D9     		bls	.L9
  42 0026 A368     		ldr	r3, [r4, #8]
  43 0028 F9E7     		b	.L3
  44              	.L9:
  45 002a 10BD     		pop	{r4, pc}
  46              	.L2:
  47 002c 4C68     		ldr	r4, [r1, #4]
  48 002e 1444     		add	r4, r4, r2
  49 0030 013C     		subs	r4, r4, #1
  50 0032 201A     		subs	r0, r4, r0
  51              	.L6:
  52 0034 9342     		cmp	r3, r2
  53 0036 01D2     		bcs	.L10
  54              	.L7:
  55 0038 8B68     		ldr	r3, [r1, #8]
  56 003a FBE7     		b	.L6
  57              	.L10:
  58 003c 8342     		cmp	r3, r0
  59 003e FBD8     		bhi	.L7
  60              	.L1:
  61 0040 10BD     		pop	{r4, pc}
  62              	.L12:
  63 0042 00BF     		.align	2
  64              	.L11:
  65 0044 00000000 		.word	SystemCoreClock
  66 0048 40420F00 		.word	1000000
  67 004c 10E000E0 		.word	-536813552
  69              		.section	.text.systick_init_1ms,"ax",%progbits
  70              		.align	1
  71              		.global	systick_init_1ms
  72              		.thumb
  73              		.thumb_func
  75              	systick_init_1ms:
  76              		@ args = 0, pretend = 0, frame = 0
  77              		@ frame_needed = 0, uses_anonymous_args = 0
  78 0000 08B5     		push	{r3, lr}
  79 0002 0420     		movs	r0, #4
  80 0004 FFF7FEFF 		bl	SysTick_CLKSourceConfig
  81 0008 084B     		ldr	r3, .L14
  82 000a F021     		movs	r1, #240
  83 000c 1A68     		ldr	r2, [r3]
  84 000e 4FF47A73 		mov	r3, #1000
  85 0012 B2FBF3F2 		udiv	r2, r2, r3
  86 0016 064B     		ldr	r3, .L14+4
  87 0018 013A     		subs	r2, r2, #1
  88 001a 5A60     		str	r2, [r3, #4]
  89 001c 054A     		ldr	r2, .L14+8
  90 001e 82F82310 		strb	r1, [r2, #35]
  91 0022 0022     		movs	r2, #0
  92 0024 9A60     		str	r2, [r3, #8]
  93 0026 0722     		movs	r2, #7
  94 0028 1A60     		str	r2, [r3]
  95 002a 08BD     		pop	{r3, pc}
  96              	.L15:
  97              		.align	2
  98              	.L14:
  99 002c 00000000 		.word	SystemCoreClock
 100 0030 10E000E0 		.word	-536813552
 101 0034 00ED00E0 		.word	-536810240
 103              		.section	.text.delay_scan_1ms,"ax",%progbits
 104              		.align	1
 105              		.global	delay_scan_1ms
 106              		.thumb
 107              		.thumb_func
 109              	delay_scan_1ms:
 110              		@ args = 0, pretend = 0, frame = 0
 111              		@ frame_needed = 0, uses_anonymous_args = 0
 112              		@ link register save eliminated.
 113 0000 024B     		ldr	r3, .L17
 114 0002 1A68     		ldr	r2, [r3]
 115 0004 0132     		adds	r2, r2, #1
 116 0006 1A60     		str	r2, [r3]
 117 0008 7047     		bx	lr
 118              	.L18:
 119 000a 00BF     		.align	2
 120              	.L17:
 121 000c 00000000 		.word	.LANCHOR0
 123              		.section	.text.delay_tick_get,"ax",%progbits
 124              		.align	1
 125              		.global	delay_tick_get
 126              		.thumb
 127              		.thumb_func
 129              	delay_tick_get:
 130              		@ args = 0, pretend = 0, frame = 0
 131              		@ frame_needed = 0, uses_anonymous_args = 0
 132              		@ link register save eliminated.
 133 0000 014B     		ldr	r3, .L20
 134 0002 1868     		ldr	r0, [r3]
 135 0004 7047     		bx	lr
 136              	.L21:
 137 0006 00BF     		.align	2
 138              	.L20:
 139 0008 00000000 		.word	.LANCHOR0
 141              		.section	.text.delay_ms,"ax",%progbits
 142              		.align	1
 143              		.global	delay_ms
 144              		.thumb
 145              		.thumb_func
 147              	delay_ms:
 148              		@ args = 0, pretend = 0, frame = 0
 149              		@ frame_needed = 0, uses_anonymous_args = 0
 150 0000 2DE9F843 		push	{r3, r4, r5, r6, r7, r8, r9, lr}
 151 0004 0546     		mov	r5, r0
 152 0006 0028     		cmp	r0, #0
 153 0008 35D0     		beq	.L22
 154 000a FFF7FEFF 		bl	__get_PRIMASK
 155              	@ 1205 "D:\Users\draapho\Desktop\stm32_ezos_v231\drivers\libraries\CMSIS\CM3\CoreSupport/core_cm3.h
 156 000e 72B6     		cpsid i
 157              	@ 0 "" 2
 158              		.thumb
 159 0010 1A4E     		ldr	r6, .L38
 160 0012 1B4F     		ldr	r7, .L38+4
 161 0014 B146     		mov	r9, r6
 162 0016 D7F80880 		ldr	r8, [r7, #8]
 163 001a 3468     		ldr	r4, [r6]
 164 001c FFF7FEFF 		bl	__set_PRIMASK
 165 0020 2D19     		adds	r5, r5, r4
 166 0022 1AD2     		bcs	.L26
 167 0024 2646     		mov	r6, r4
 168              	.L27:
 169 0026 AE42     		cmp	r6, r5
 170 0028 0ED8     		bhi	.L35
 171 002a FFF7FEFF 		bl	__get_PRIMASK
 172              	@ 1205 "D:\Users\draapho\Desktop\stm32_ezos_v231\drivers\libraries\CMSIS\CM3\CoreSupport/core_cm3.h
 173 002e 72B6     		cpsid i
 174              	@ 0 "" 2
 175              		.thumb
 176 0030 D9F80060 		ldr	r6, [r9]
 177 0034 AE42     		cmp	r6, r5
 178 0036 02D1     		bne	.L28
 179 0038 BB68     		ldr	r3, [r7, #8]
 180 003a 4345     		cmp	r3, r8
 181 003c 15D9     		bls	.L34
 182              	.L28:
 183 003e FFF7FEFF 		bl	__set_PRIMASK
 184 0042 A642     		cmp	r6, r4
 185 0044 EFD2     		bcs	.L27
 186 0046 16E0     		b	.L22
 187              	.L35:
 188 0048 BDE8F883 		pop	{r3, r4, r5, r6, r7, r8, r9, pc}
 189              	.L37:
 190 004c BB68     		ldr	r3, [r7, #8]
 191 004e 4345     		cmp	r3, r8
 192 0050 0BD9     		bls	.L34
 193              	.L31:
 194 0052 FFF7FEFF 		bl	__set_PRIMASK
 195 0056 A642     		cmp	r6, r4
 196 0058 0BD3     		bcc	.L36
 197              	.L26:
 198 005a FFF7FEFF 		bl	__get_PRIMASK
 199              	@ 1205 "D:\Users\draapho\Desktop\stm32_ezos_v231\drivers\libraries\CMSIS\CM3\CoreSupport/core_cm3.h
 200 005e 72B6     		cpsid i
 201              	@ 0 "" 2
 202              		.thumb
 203 0060 D9F80060 		ldr	r6, [r9]
 204 0064 AE42     		cmp	r6, r5
 205 0066 F4D1     		bne	.L31
 206 0068 F0E7     		b	.L37
 207              	.L34:
 208 006a BDE8F843 		pop	{r3, r4, r5, r6, r7, r8, r9, lr}
 209 006e FFF7FEBF 		b	__set_PRIMASK
 210              	.L36:
 211 0072 AE42     		cmp	r6, r5
 212 0074 F1D9     		bls	.L26
 213              	.L22:
 214 0076 BDE8F883 		pop	{r3, r4, r5, r6, r7, r8, r9, pc}
 215              	.L39:
 216 007a 00BF     		.align	2
 217              	.L38:
 218 007c 00000000 		.word	.LANCHOR0
 219 0080 10E000E0 		.word	-536813552
 221              		.section	.text.delay_us,"ax",%progbits
 222              		.align	1
 223              		.global	delay_us
 224              		.thumb
 225              		.thumb_func
 227              	delay_us:
 228              		@ args = 0, pretend = 0, frame = 0
 229              		@ frame_needed = 0, uses_anonymous_args = 0
 230 0000 38B5     		push	{r3, r4, r5, lr}
 231 0002 0446     		mov	r4, r0
 232 0004 98B1     		cbz	r0, .L40
 233 0006 FA23     		movs	r3, #250
 234 0008 B0FBF3F0 		udiv	r0, r0, r3
 235 000c 03FB1040 		mls	r0, r3, r0, r4
 236 0010 80B2     		uxth	r0, r0
 237 0012 1D46     		mov	r5, r3
 238 0014 10B1     		cbz	r0, .L42
 239 0016 C0B2     		uxtb	r0, r0
 240 0018 FFF7FEFF 		bl	delay_250us
 241              	.L42:
 242 001c B4FBF5F4 		udiv	r4, r4, r5
 243              	.L43:
 244 0020 2CB1     		cbz	r4, .L40
 245 0022 FA20     		movs	r0, #250
 246 0024 013C     		subs	r4, r4, #1
 247 0026 FFF7FEFF 		bl	delay_250us
 248 002a A4B2     		uxth	r4, r4
 249 002c F8E7     		b	.L43
 250              	.L40:
 251 002e 38BD     		pop	{r3, r4, r5, pc}
 253              		.section	.bss.timer_delay_ms,"aw",%nobits
 254              		.align	2
 255              		.set	.LANCHOR0,. + 0
 258              	timer_delay_ms:
 259 0000 00000000 		.space	4
 260              		.ident	"GCC: (Sourcery CodeBench Lite 2013.11-24) 4.8.1"