   1              		.syntax unified
   2              		.cpu cortex-m3
   3              		.fpu softvfp
   4              		.eabi_attribute 20, 1
   5              		.eabi_attribute 21, 1
   6              		.eabi_attribute 23, 3
   7              		.eabi_attribute 24, 1
   8              		.eabi_attribute 25, 1
   9              		.eabi_attribute 26, 1
  10              		.eabi_attribute 30, 4
  11              		.eabi_attribute 34, 1
  12              		.eabi_attribute 18, 4
  13              		.thumb
  14              		.file	"ff.c"
  15              		.section	.text.mem_cpy,"ax",%progbits
  16              		.align	1
  17              		.thumb
  18              		.thumb_func
  20              	mem_cpy:
  21              		@ args = 0, pretend = 0, frame = 0
  22              		@ frame_needed = 0, uses_anonymous_args = 0
  23 0000 10B5     		push	{r4, lr}
  24 0002 0023     		movs	r3, #0
  25              	.L2:
  26 0004 9342     		cmp	r3, r2
  27 0006 03D0     		beq	.L5
  28 0008 CC5C     		ldrb	r4, [r1, r3]	@ zero_extendqisi2
  29 000a C454     		strb	r4, [r0, r3]
  30 000c 0133     		adds	r3, r3, #1
  31 000e F9E7     		b	.L2
  32              	.L5:
  33 0010 10BD     		pop	{r4, pc}
  35              		.section	.text.mem_set,"ax",%progbits
  36              		.align	1
  37              		.thumb
  38              		.thumb_func
  40              	mem_set:
  41              		@ args = 0, pretend = 0, frame = 0
  42              		@ frame_needed = 0, uses_anonymous_args = 0
  43              		@ link register save eliminated.
  44 0000 0244     		add	r2, r2, r0
  45              	.L7:
  46 0002 9042     		cmp	r0, r2
  47 0004 02D0     		beq	.L9
  48 0006 00F8011B 		strb	r1, [r0], #1
  49 000a FAE7     		b	.L7
  50              	.L9:
  51 000c 7047     		bx	lr
  53              		.section	.text.sum_sfn,"ax",%progbits
  54              		.align	1
  55              		.thumb
  56              		.thumb_func
  58              	sum_sfn:
  59              		@ args = 0, pretend = 0, frame = 0
  60              		@ frame_needed = 0, uses_anonymous_args = 0
  61 0000 0023     		movs	r3, #0
  62 0002 10B5     		push	{r4, lr}
  63 0004 0446     		mov	r4, r0
  64 0006 1846     		mov	r0, r3
  65              	.L12:
  66 0008 C201     		lsls	r2, r0, #7
  67 000a 42EA5002 		orr	r2, r2, r0, lsr #1
  68 000e E15C     		ldrb	r1, [r4, r3]	@ zero_extendqisi2
  69 0010 D2B2     		uxtb	r2, r2
  70 0012 0133     		adds	r3, r3, #1
  71 0014 0A44     		add	r2, r2, r1
  72 0016 0B2B     		cmp	r3, #11
  73 0018 D0B2     		uxtb	r0, r2
  74 001a F5D1     		bne	.L12
  75 001c 10BD     		pop	{r4, pc}
  77              		.section	.text.validate,"ax",%progbits
  78              		.align	1
  79              		.thumb
  80              		.thumb_func
  82              	validate:
  83              		@ args = 0, pretend = 0, frame = 0
  84              		@ frame_needed = 0, uses_anonymous_args = 0
  85 0000 08B5     		push	{r3, lr}
  86 0002 80B1     		cbz	r0, .L19
  87 0004 0368     		ldr	r3, [r0]
  88 0006 73B1     		cbz	r3, .L19
  89 0008 1A78     		ldrb	r2, [r3]	@ zero_extendqisi2
  90 000a 62B1     		cbz	r2, .L19
  91 000c D988     		ldrh	r1, [r3, #6]
  92 000e 8288     		ldrh	r2, [r0, #4]
  93 0010 9142     		cmp	r1, r2
  94 0012 08D1     		bne	.L19
  95 0014 5878     		ldrb	r0, [r3, #1]	@ zero_extendqisi2
  96 0016 FFF7FEFF 		bl	disk_status
  97 001a 10F0010F 		tst	r0, #1
  98 001e 0CBF     		ite	eq
  99 0020 0020     		moveq	r0, #0
 100 0022 0320     		movne	r0, #3
 101 0024 08BD     		pop	{r3, pc}
 102              	.L19:
 103 0026 0920     		movs	r0, #9
 104 0028 08BD     		pop	{r3, pc}
 106              		.section	.text.get_fileinfo,"ax",%progbits
 107              		.align	1
 108              		.thumb
 109              		.thumb_func
 111              	get_fileinfo:
 112              		@ args = 0, pretend = 0, frame = 0
 113              		@ frame_needed = 0, uses_anonymous_args = 0
 114 0000 F8B5     		push	{r3, r4, r5, r6, r7, lr}
 115 0002 0369     		ldr	r3, [r0, #16]
 116 0004 0D46     		mov	r5, r1
 117 0006 01F10902 		add	r2, r1, #9
 118 000a 002B     		cmp	r3, #0
 119 000c 4BD0     		beq	.L22
 120 000e 4369     		ldr	r3, [r0, #20]
 121 0010 0024     		movs	r4, #0
 122 0012 1E7B     		ldrb	r6, [r3, #12]	@ zero_extendqisi2
 123 0014 06F00807 		and	r7, r6, #8
 124 0018 FFB2     		uxtb	r7, r7
 125              	.L26:
 126 001a 195D     		ldrb	r1, [r3, r4]	@ zero_extendqisi2
 127 001c 2029     		cmp	r1, #32
 128 001e 11D0     		beq	.L23
 129 0020 0529     		cmp	r1, #5
 130 0022 08BF     		it	eq
 131 0024 E521     		moveq	r1, #229
 132 0026 47B1     		cbz	r7, .L25
 133 0028 A1F1410C 		sub	ip, r1, #65
 134 002c 5FFA8CFC 		uxtb	ip, ip
 135 0030 BCF1190F 		cmp	ip, #25
 136 0034 9CBF     		itt	ls
 137 0036 2031     		addls	r1, r1, #32
 138 0038 C9B2     		uxtbls	r1, r1
 139              	.L25:
 140 003a 0134     		adds	r4, r4, #1
 141 003c 082C     		cmp	r4, #8
 142 003e 02F8011B 		strb	r1, [r2], #1
 143 0042 EAD1     		bne	.L26
 144              	.L23:
 145 0044 197A     		ldrb	r1, [r3, #8]	@ zero_extendqisi2
 146 0046 2029     		cmp	r1, #32
 147 0048 16D0     		beq	.L27
 148 004a 2E21     		movs	r1, #46
 149 004c 06F01006 		and	r6, r6, #16
 150 0050 1170     		strb	r1, [r2]
 151 0052 0824     		movs	r4, #8
 152 0054 0132     		adds	r2, r2, #1
 153 0056 F6B2     		uxtb	r6, r6
 154              	.L29:
 155 0058 195D     		ldrb	r1, [r3, r4]	@ zero_extendqisi2
 156 005a 2029     		cmp	r1, #32
 157 005c 0CD0     		beq	.L27
 158 005e 36B1     		cbz	r6, .L28
 159 0060 A1F14107 		sub	r7, r1, #65
 160 0064 FFB2     		uxtb	r7, r7
 161 0066 192F     		cmp	r7, #25
 162 0068 9CBF     		itt	ls
 163 006a 2031     		addls	r1, r1, #32
 164 006c C9B2     		uxtbls	r1, r1
 165              	.L28:
 166 006e 0134     		adds	r4, r4, #1
 167 0070 0B2C     		cmp	r4, #11
 168 0072 02F8011B 		strb	r1, [r2], #1
 169 0076 EFD1     		bne	.L29
 170              	.L27:
 171 0078 D97A     		ldrb	r1, [r3, #11]	@ zero_extendqisi2
 172 007a 2972     		strb	r1, [r5, #8]
 173 007c 997F     		ldrb	r1, [r3, #30]	@ zero_extendqisi2
 174 007e DC7F     		ldrb	r4, [r3, #31]	@ zero_extendqisi2
 175 0080 0904     		lsls	r1, r1, #16
 176 0082 41EA0461 		orr	r1, r1, r4, lsl #24
 177 0086 1C7F     		ldrb	r4, [r3, #28]	@ zero_extendqisi2
 178 0088 2143     		orrs	r1, r1, r4
 179 008a 5C7F     		ldrb	r4, [r3, #29]	@ zero_extendqisi2
 180 008c 41EA0421 		orr	r1, r1, r4, lsl #8
 181 0090 2960     		str	r1, [r5]
 182 0092 5C7E     		ldrb	r4, [r3, #25]	@ zero_extendqisi2
 183 0094 197E     		ldrb	r1, [r3, #24]	@ zero_extendqisi2
 184 0096 41EA0421 		orr	r1, r1, r4, lsl #8
 185 009a A980     		strh	r1, [r5, #4]	@ movhi
 186 009c D97D     		ldrb	r1, [r3, #23]	@ zero_extendqisi2
 187 009e 9B7D     		ldrb	r3, [r3, #22]	@ zero_extendqisi2
 188 00a0 43EA0123 		orr	r3, r3, r1, lsl #8
 189 00a4 EB80     		strh	r3, [r5, #6]	@ movhi
 190              	.L22:
 191 00a6 0024     		movs	r4, #0
 192 00a8 1470     		strb	r4, [r2]
 193 00aa AE69     		ldr	r6, [r5, #24]
 194 00ac 0EB3     		cbz	r6, .L21
 195 00ae EB69     		ldr	r3, [r5, #28]
 196 00b0 FBB1     		cbz	r3, .L21
 197 00b2 0369     		ldr	r3, [r0, #16]
 198 00b4 0BB9     		cbnz	r3, .L31
 199              	.L33:
 200 00b6 0024     		movs	r4, #0
 201 00b8 19E0     		b	.L32
 202              	.L31:
 203 00ba 028C     		ldrh	r2, [r0, #32]
 204 00bc 4FF6FF73 		movw	r3, #65535
 205 00c0 9A42     		cmp	r2, r3
 206 00c2 F8D0     		beq	.L33
 207 00c4 C769     		ldr	r7, [r0, #28]
 208              	.L34:
 209 00c6 37F8020B 		ldrh	r0, [r7], #2
 210 00ca 80B1     		cbz	r0, .L32
 211 00cc 0021     		movs	r1, #0
 212 00ce FFF7FEFF 		bl	ff_convert
 213 00d2 0028     		cmp	r0, #0
 214 00d4 EFD0     		beq	.L33
 215 00d6 FF28     		cmp	r0, #255
 216 00d8 02D9     		bls	.L35
 217 00da 030A     		lsrs	r3, r0, #8
 218 00dc 3355     		strb	r3, [r6, r4]
 219 00de 0134     		adds	r4, r4, #1
 220              	.L35:
 221 00e0 EB69     		ldr	r3, [r5, #28]
 222 00e2 013B     		subs	r3, r3, #1
 223 00e4 9C42     		cmp	r4, r3
 224 00e6 E6D2     		bcs	.L33
 225 00e8 3055     		strb	r0, [r6, r4]
 226 00ea 0134     		adds	r4, r4, #1
 227 00ec EBE7     		b	.L34
 228              	.L32:
 229 00ee 0023     		movs	r3, #0
 230 00f0 3355     		strb	r3, [r6, r4]
 231              	.L21:
 232 00f2 F8BD     		pop	{r3, r4, r5, r6, r7, pc}
 234              		.section	.text.ld_clust.isra.0,"ax",%progbits
 235              		.align	1
 236              		.thumb
 237              		.thumb_func
 239              	ld_clust.isra.0:
 240              		@ args = 0, pretend = 0, frame = 0
 241              		@ frame_needed = 0, uses_anonymous_args = 0
 242              		@ link register save eliminated.
 243 0000 CA7E     		ldrb	r2, [r1, #27]	@ zero_extendqisi2
 244 0002 8B7E     		ldrb	r3, [r1, #26]	@ zero_extendqisi2
 245 0004 0328     		cmp	r0, #3
 246 0006 43EA0223 		orr	r3, r3, r2, lsl #8
 247 000a 05D1     		bne	.L73
 248 000c 487D     		ldrb	r0, [r1, #21]	@ zero_extendqisi2
 249 000e 0A7D     		ldrb	r2, [r1, #20]	@ zero_extendqisi2
 250 0010 42EA0022 		orr	r2, r2, r0, lsl #8
 251 0014 43EA0243 		orr	r3, r3, r2, lsl #16
 252              	.L73:
 253 0018 1846     		mov	r0, r3
 254 001a 7047     		bx	lr
 256              		.section	.text.check_fs,"ax",%progbits
 257              		.align	1
 258              		.thumb
 259              		.thumb_func
 261              	check_fs:
 262              		@ args = 0, pretend = 0, frame = 0
 263              		@ frame_needed = 0, uses_anonymous_args = 0
 264 0000 10B5     		push	{r4, lr}
 265 0002 0446     		mov	r4, r0
 266 0004 0A46     		mov	r2, r1
 267 0006 4078     		ldrb	r0, [r0, #1]	@ zero_extendqisi2
 268 0008 04F13801 		add	r1, r4, #56
 269 000c 0123     		movs	r3, #1
 270 000e FFF7FEFF 		bl	disk_read
 271 0012 80BB     		cbnz	r0, .L76
 272 0014 94F83632 		ldrb	r3, [r4, #566]	@ zero_extendqisi2
 273 0018 94F83722 		ldrb	r2, [r4, #567]	@ zero_extendqisi2
 274 001c 43EA0222 		orr	r2, r3, r2, lsl #8
 275 0020 174B     		ldr	r3, .L79
 276 0022 12B2     		sxth	r2, r2
 277 0024 9A42     		cmp	r2, r3
 278 0026 28D1     		bne	.L77
 279 0028 94F87020 		ldrb	r2, [r4, #112]	@ zero_extendqisi2
 280 002c 94F87130 		ldrb	r3, [r4, #113]	@ zero_extendqisi2
 281 0030 1204     		lsls	r2, r2, #16
 282 0032 42EA0362 		orr	r2, r2, r3, lsl #24
 283 0036 94F86E30 		ldrb	r3, [r4, #110]	@ zero_extendqisi2
 284 003a 1A43     		orrs	r2, r2, r3
 285 003c 94F86F30 		ldrb	r3, [r4, #111]	@ zero_extendqisi2
 286 0040 42EA0322 		orr	r2, r2, r3, lsl #8
 287 0044 0F4B     		ldr	r3, .L79+4
 288 0046 22F07F42 		bic	r2, r2, #-16777216
 289 004a 9A42     		cmp	r2, r3
 290 004c 16D0     		beq	.L75
 291 004e 94F88C00 		ldrb	r0, [r4, #140]	@ zero_extendqisi2
 292 0052 94F88D20 		ldrb	r2, [r4, #141]	@ zero_extendqisi2
 293 0056 0004     		lsls	r0, r0, #16
 294 0058 40EA0260 		orr	r0, r0, r2, lsl #24
 295 005c 94F88A20 		ldrb	r2, [r4, #138]	@ zero_extendqisi2
 296 0060 1043     		orrs	r0, r0, r2
 297 0062 94F88B20 		ldrb	r2, [r4, #139]	@ zero_extendqisi2
 298 0066 40EA0220 		orr	r0, r0, r2, lsl #8
 299 006a 20F07F40 		bic	r0, r0, #-16777216
 300 006e C01A     		subs	r0, r0, r3
 301 0070 18BF     		it	ne
 302 0072 0120     		movne	r0, #1
 303 0074 10BD     		pop	{r4, pc}
 304              	.L76:
 305 0076 0320     		movs	r0, #3
 306 0078 10BD     		pop	{r4, pc}
 307              	.L77:
 308 007a 0220     		movs	r0, #2
 309              	.L75:
 310 007c 10BD     		pop	{r4, pc}
 311              	.L80:
 312 007e 00BF     		.align	2
 313              	.L79:
 314 0080 55AAFFFF 		.word	-21931
 315 0084 46415400 		.word	5521734
 317              		.section	.text.chk_mounted,"ax",%progbits
 318              		.align	1
 319              		.thumb
 320              		.thumb_func
 322              	chk_mounted:
 323              		@ args = 0, pretend = 0, frame = 0
 324              		@ frame_needed = 0, uses_anonymous_args = 0
 325 0000 2DE9F041 		push	{r4, r5, r6, r7, r8, lr}
 326 0004 1546     		mov	r5, r2
 327 0006 0268     		ldr	r2, [r0]
 328 0008 1378     		ldrb	r3, [r2]	@ zero_extendqisi2
 329 000a 303B     		subs	r3, r3, #48
 330 000c 092B     		cmp	r3, #9
 331 000e 05D8     		bhi	.L82
 332 0010 5478     		ldrb	r4, [r2, #1]	@ zero_extendqisi2
 333 0012 3A2C     		cmp	r4, #58
 334 0014 02D1     		bne	.L82
 335 0016 0232     		adds	r2, r2, #2
 336 0018 0260     		str	r2, [r0]
 337 001a 01E0     		b	.L83
 338              	.L82:
 339 001c B74B     		ldr	r3, .L128
 340 001e 1B78     		ldrb	r3, [r3]	@ zero_extendqisi2
 341              	.L83:
 342 0020 0022     		movs	r2, #0
 343 0022 0A60     		str	r2, [r1]
 344 0024 002B     		cmp	r3, #0
 345 0026 40F05681 		bne	.L100
 346 002a B54B     		ldr	r3, .L128+4
 347 002c 1C68     		ldr	r4, [r3]
 348 002e 002C     		cmp	r4, #0
 349 0030 00F05481 		beq	.L101
 350 0034 0C60     		str	r4, [r1]
 351 0036 2378     		ldrb	r3, [r4]	@ zero_extendqisi2
 352 0038 73B1     		cbz	r3, .L85
 353 003a 6078     		ldrb	r0, [r4, #1]	@ zero_extendqisi2
 354 003c FFF7FEFF 		bl	disk_status
 355 0040 C607     		lsls	r6, r0, #31
 356 0042 09D4     		bmi	.L85
 357 0044 002D     		cmp	r5, #0
 358 0046 00F04C81 		beq	.L102
 359 004a 10F0040F 		tst	r0, #4
 360 004e 0CBF     		ite	eq
 361 0050 0020     		moveq	r0, #0
 362 0052 0A20     		movne	r0, #10
 363 0054 BDE8F081 		pop	{r4, r5, r6, r7, r8, pc}
 364              	.L85:
 365 0058 0020     		movs	r0, #0
 366 005a 2070     		strb	r0, [r4]
 367 005c 6070     		strb	r0, [r4, #1]
 368 005e FFF7FEFF 		bl	disk_initialize
 369 0062 C107     		lsls	r1, r0, #31
 370 0064 00F14081 		bmi	.L104
 371 0068 15B1     		cbz	r5, .L86
 372 006a 4207     		lsls	r2, r0, #29
 373 006c 00F13F81 		bmi	.L105
 374              	.L86:
 375 0070 2046     		mov	r0, r4
 376 0072 0021     		movs	r1, #0
 377 0074 FFF7FEFF 		bl	check_fs
 378 0078 0128     		cmp	r0, #1
 379 007a 18D1     		bne	.L106
 380 007c 94F8FA31 		ldrb	r3, [r4, #506]	@ zero_extendqisi2
 381 0080 13B9     		cbnz	r3, .L88
 382              	.L89:
 383 0082 0D20     		movs	r0, #13
 384 0084 BDE8F081 		pop	{r4, r5, r6, r7, r8, pc}
 385              	.L88:
 386 0088 94F80052 		ldrb	r5, [r4, #512]	@ zero_extendqisi2
 387 008c 94F80132 		ldrb	r3, [r4, #513]	@ zero_extendqisi2
 388 0090 2D04     		lsls	r5, r5, #16
 389 0092 45EA0365 		orr	r5, r5, r3, lsl #24
 390 0096 94F8FE31 		ldrb	r3, [r4, #510]	@ zero_extendqisi2
 391 009a 2046     		mov	r0, r4
 392 009c 1D43     		orrs	r5, r5, r3
 393 009e 94F8FF31 		ldrb	r3, [r4, #511]	@ zero_extendqisi2
 394 00a2 45EA0325 		orr	r5, r5, r3, lsl #8
 395 00a6 2946     		mov	r1, r5
 396 00a8 FFF7FEFF 		bl	check_fs
 397 00ac 00E0     		b	.L87
 398              	.L106:
 399 00ae 0025     		movs	r5, #0
 400              	.L87:
 401 00b0 0328     		cmp	r0, #3
 402 00b2 00F01F81 		beq	.L107
 403 00b6 0028     		cmp	r0, #0
 404 00b8 E3D1     		bne	.L89
 405 00ba 94F84420 		ldrb	r2, [r4, #68]	@ zero_extendqisi2
 406 00be 94F84330 		ldrb	r3, [r4, #67]	@ zero_extendqisi2
 407 00c2 43EA0223 		orr	r3, r3, r2, lsl #8
 408 00c6 B3F5007F 		cmp	r3, #512
 409 00ca DAD1     		bne	.L89
 410 00cc 94F84F00 		ldrb	r0, [r4, #79]	@ zero_extendqisi2
 411 00d0 94F84E30 		ldrb	r3, [r4, #78]	@ zero_extendqisi2
 412 00d4 53EA0020 		orrs	r0, r3, r0, lsl #8
 413 00d8 0DD1     		bne	.L90
 414 00da 94F85E00 		ldrb	r0, [r4, #94]	@ zero_extendqisi2
 415 00de 94F85F30 		ldrb	r3, [r4, #95]	@ zero_extendqisi2
 416 00e2 0004     		lsls	r0, r0, #16
 417 00e4 40EA0360 		orr	r0, r0, r3, lsl #24
 418 00e8 94F85C30 		ldrb	r3, [r4, #92]	@ zero_extendqisi2
 419 00ec 1843     		orrs	r0, r0, r3
 420 00ee 94F85D30 		ldrb	r3, [r4, #93]	@ zero_extendqisi2
 421 00f2 40EA0320 		orr	r0, r0, r3, lsl #8
 422              	.L90:
 423 00f6 94F84860 		ldrb	r6, [r4, #72]	@ zero_extendqisi2
 424 00fa 2062     		str	r0, [r4, #32]
 425 00fc 731E     		subs	r3, r6, #1
 426 00fe DBB2     		uxtb	r3, r3
 427 0100 012B     		cmp	r3, #1
 428 0102 E670     		strb	r6, [r4, #3]
 429 0104 BDD8     		bhi	.L89
 430 0106 94F84510 		ldrb	r1, [r4, #69]	@ zero_extendqisi2
 431 010a A170     		strb	r1, [r4, #2]
 432 010c 0029     		cmp	r1, #0
 433 010e B8D0     		beq	.L89
 434 0110 4B1E     		subs	r3, r1, #1
 435 0112 0B42     		tst	r3, r1
 436 0114 B5D1     		bne	.L89
 437 0116 94F84930 		ldrb	r3, [r4, #73]	@ zero_extendqisi2
 438 011a 94F84A20 		ldrb	r2, [r4, #74]	@ zero_extendqisi2
 439 011e 43EA0222 		orr	r2, r3, r2, lsl #8
 440 0122 1307     		lsls	r3, r2, #28
 441 0124 2281     		strh	r2, [r4, #8]	@ movhi
 442 0126 ACD1     		bne	.L89
 443 0128 94F84C70 		ldrb	r7, [r4, #76]	@ zero_extendqisi2
 444 012c 94F84B30 		ldrb	r3, [r4, #75]	@ zero_extendqisi2
 445 0130 53EA0723 		orrs	r3, r3, r7, lsl #8
 446 0134 0DD1     		bne	.L91
 447 0136 94F85A30 		ldrb	r3, [r4, #90]	@ zero_extendqisi2
 448 013a 94F85B70 		ldrb	r7, [r4, #91]	@ zero_extendqisi2
 449 013e 1B04     		lsls	r3, r3, #16
 450 0140 43EA0763 		orr	r3, r3, r7, lsl #24
 451 0144 94F85870 		ldrb	r7, [r4, #88]	@ zero_extendqisi2
 452 0148 3B43     		orrs	r3, r3, r7
 453 014a 94F85970 		ldrb	r7, [r4, #89]	@ zero_extendqisi2
 454 014e 43EA0723 		orr	r3, r3, r7, lsl #8
 455              	.L91:
 456 0152 94F84780 		ldrb	r8, [r4, #71]	@ zero_extendqisi2
 457 0156 94F84670 		ldrb	r7, [r4, #70]	@ zero_extendqisi2
 458 015a 57EA0828 		orrs	r8, r7, r8, lsl #8
 459 015e 90D0     		beq	.L89
 460 0160 06FB00FC 		mul	ip, r6, r0
 461 0164 08EB1217 		add	r7, r8, r2, lsr #4
 462 0168 6744     		add	r7, r7, ip
 463 016a BB42     		cmp	r3, r7
 464 016c 89D3     		bcc	.L89
 465 016e DB1B     		subs	r3, r3, r7
 466 0170 B3FBF1F3 		udiv	r3, r3, r1
 467 0174 002B     		cmp	r3, #0
 468 0176 84D0     		beq	.L89
 469 0178 40F6F571 		movw	r1, #4085
 470 017c 8B42     		cmp	r3, r1
 471 017e 06D9     		bls	.L108
 472 0180 4FF6F576 		movw	r6, #65525
 473 0184 B342     		cmp	r3, r6
 474 0186 8CBF     		ite	hi
 475 0188 0326     		movhi	r6, #3
 476 018a 0226     		movls	r6, #2
 477 018c 00E0     		b	.L93
 478              	.L108:
 479 018e 0126     		movs	r6, #1
 480              	.L93:
 481 0190 0233     		adds	r3, r3, #2
 482 0192 05EB0801 		add	r1, r5, r8
 483 0196 2F44     		add	r7, r7, r5
 484 0198 032E     		cmp	r6, #3
 485 019a E361     		str	r3, [r4, #28]
 486 019c 6562     		str	r5, [r4, #36]
 487 019e A162     		str	r1, [r4, #40]
 488 01a0 2763     		str	r7, [r4, #48]
 489 01a2 13D1     		bne	.L94
 490 01a4 002A     		cmp	r2, #0
 491 01a6 7FF46CAF 		bne	.L89
 492 01aa 94F86620 		ldrb	r2, [r4, #102]	@ zero_extendqisi2
 493 01ae 94F86710 		ldrb	r1, [r4, #103]	@ zero_extendqisi2
 494 01b2 1204     		lsls	r2, r2, #16
 495 01b4 42EA0162 		orr	r2, r2, r1, lsl #24
 496 01b8 94F86410 		ldrb	r1, [r4, #100]	@ zero_extendqisi2
 497 01bc 9B00     		lsls	r3, r3, #2
 498 01be 0A43     		orrs	r2, r2, r1
 499 01c0 94F86510 		ldrb	r1, [r4, #101]	@ zero_extendqisi2
 500 01c4 42EA0122 		orr	r2, r2, r1, lsl #8
 501 01c8 E262     		str	r2, [r4, #44]
 502 01ca 0EE0     		b	.L95
 503              	.L94:
 504 01cc 002A     		cmp	r2, #0
 505 01ce 3FF458AF 		beq	.L89
 506 01d2 6144     		add	r1, r1, ip
 507 01d4 022E     		cmp	r6, #2
 508 01d6 E162     		str	r1, [r4, #44]
 509 01d8 01D1     		bne	.L96
 510 01da 5B00     		lsls	r3, r3, #1
 511 01dc 05E0     		b	.L95
 512              	.L96:
 513 01de 0322     		movs	r2, #3
 514 01e0 5A43     		muls	r2, r3, r2
 515 01e2 03F00103 		and	r3, r3, #1
 516 01e6 03EB5203 		add	r3, r3, r2, lsr #1
 517              	.L95:
 518 01ea 03F2FF13 		addw	r3, r3, #511
 519 01ee B0EB532F 		cmp	r0, r3, lsr #9
 520 01f2 FFF446AF 		bcc	.L89
 521 01f6 4FF0FF33 		mov	r3, #-1
 522 01fa 2361     		str	r3, [r4, #16]
 523 01fc 032E     		cmp	r6, #3
 524 01fe 4FF00003 		mov	r3, #0
 525 0202 E360     		str	r3, [r4, #12]
 526 0204 5AD1     		bne	.L98
 527 0206 6371     		strb	r3, [r4, #5]
 528 0208 94F86920 		ldrb	r2, [r4, #105]	@ zero_extendqisi2
 529 020c 94F86830 		ldrb	r3, [r4, #104]	@ zero_extendqisi2
 530 0210 6078     		ldrb	r0, [r4, #1]	@ zero_extendqisi2
 531 0212 43EA0222 		orr	r2, r3, r2, lsl #8
 532 0216 2A44     		add	r2, r2, r5
 533 0218 6261     		str	r2, [r4, #20]
 534 021a 04F13801 		add	r1, r4, #56
 535 021e 0123     		movs	r3, #1
 536 0220 FFF7FEFF 		bl	disk_read
 537 0224 0028     		cmp	r0, #0
 538 0226 49D1     		bne	.L98
 539 0228 94F83632 		ldrb	r3, [r4, #566]	@ zero_extendqisi2
 540 022c 94F83722 		ldrb	r2, [r4, #567]	@ zero_extendqisi2
 541 0230 43EA0222 		orr	r2, r3, r2, lsl #8
 542 0234 334B     		ldr	r3, .L128+8
 543 0236 12B2     		sxth	r2, r2
 544 0238 9A42     		cmp	r2, r3
 545 023a 3FD1     		bne	.L98
 546 023c 94F83A20 		ldrb	r2, [r4, #58]	@ zero_extendqisi2
 547 0240 94F83B30 		ldrb	r3, [r4, #59]	@ zero_extendqisi2
 548 0244 1204     		lsls	r2, r2, #16
 549 0246 42EA0362 		orr	r2, r2, r3, lsl #24
 550 024a 94F83830 		ldrb	r3, [r4, #56]	@ zero_extendqisi2
 551 024e 1A43     		orrs	r2, r2, r3
 552 0250 94F83930 		ldrb	r3, [r4, #57]	@ zero_extendqisi2
 553 0254 42EA0322 		orr	r2, r2, r3, lsl #8
 554 0258 2B4B     		ldr	r3, .L128+12
 555 025a 9A42     		cmp	r2, r3
 556 025c 2ED1     		bne	.L98
 557 025e 94F81E22 		ldrb	r2, [r4, #542]	@ zero_extendqisi2
 558 0262 94F81F32 		ldrb	r3, [r4, #543]	@ zero_extendqisi2
 559 0266 1204     		lsls	r2, r2, #16
 560 0268 42EA0362 		orr	r2, r2, r3, lsl #24
 561 026c 94F81C32 		ldrb	r3, [r4, #540]	@ zero_extendqisi2
 562 0270 1A43     		orrs	r2, r2, r3
 563 0272 94F81D32 		ldrb	r3, [r4, #541]	@ zero_extendqisi2
 564 0276 42EA0322 		orr	r2, r2, r3, lsl #8
 565 027a 244B     		ldr	r3, .L128+16
 566 027c 9A42     		cmp	r2, r3
 567 027e 1DD1     		bne	.L98
 568 0280 94F82632 		ldrb	r3, [r4, #550]	@ zero_extendqisi2
 569 0284 94F82722 		ldrb	r2, [r4, #551]	@ zero_extendqisi2
 570 0288 1B04     		lsls	r3, r3, #16
 571 028a 43EA0263 		orr	r3, r3, r2, lsl #24
 572 028e 94F82422 		ldrb	r2, [r4, #548]	@ zero_extendqisi2
 573 0292 1343     		orrs	r3, r3, r2
 574 0294 94F82522 		ldrb	r2, [r4, #549]	@ zero_extendqisi2
 575 0298 43EA0223 		orr	r3, r3, r2, lsl #8
 576 029c E360     		str	r3, [r4, #12]
 577 029e 94F82232 		ldrb	r3, [r4, #546]	@ zero_extendqisi2
 578 02a2 94F82322 		ldrb	r2, [r4, #547]	@ zero_extendqisi2
 579 02a6 1B04     		lsls	r3, r3, #16
 580 02a8 43EA0263 		orr	r3, r3, r2, lsl #24
 581 02ac 94F82022 		ldrb	r2, [r4, #544]	@ zero_extendqisi2
 582 02b0 1343     		orrs	r3, r3, r2
 583 02b2 94F82122 		ldrb	r2, [r4, #545]	@ zero_extendqisi2
 584 02b6 43EA0223 		orr	r3, r3, r2, lsl #8
 585 02ba 2361     		str	r3, [r4, #16]
 586              	.L98:
 587 02bc 144A     		ldr	r2, .L128+20
 588 02be 0020     		movs	r0, #0
 589 02c0 1388     		ldrh	r3, [r2]
 590 02c2 2670     		strb	r6, [r4]
 591 02c4 0133     		adds	r3, r3, #1
 592 02c6 9BB2     		uxth	r3, r3
 593 02c8 2071     		strb	r0, [r4, #4]
 594 02ca 1380     		strh	r3, [r2]	@ movhi
 595 02cc E380     		strh	r3, [r4, #6]	@ movhi
 596 02ce 6063     		str	r0, [r4, #52]
 597 02d0 A061     		str	r0, [r4, #24]
 598 02d2 BDE8F081 		pop	{r4, r5, r6, r7, r8, pc}
 599              	.L100:
 600 02d6 0B20     		movs	r0, #11
 601 02d8 BDE8F081 		pop	{r4, r5, r6, r7, r8, pc}
 602              	.L101:
 603 02dc 0C20     		movs	r0, #12
 604 02de BDE8F081 		pop	{r4, r5, r6, r7, r8, pc}
 605              	.L102:
 606 02e2 2846     		mov	r0, r5
 607 02e4 BDE8F081 		pop	{r4, r5, r6, r7, r8, pc}
 608              	.L104:
 609 02e8 0320     		movs	r0, #3
 610 02ea BDE8F081 		pop	{r4, r5, r6, r7, r8, pc}
 611              	.L105:
 612 02ee 0A20     		movs	r0, #10
 613 02f0 BDE8F081 		pop	{r4, r5, r6, r7, r8, pc}
 614              	.L107:
 615 02f4 0120     		movs	r0, #1
 616 02f6 BDE8F081 		pop	{r4, r5, r6, r7, r8, pc}
 617              	.L129:
 618 02fa 00BF     		.align	2
 619              	.L128:
 620 02fc 00000000 		.word	.LANCHOR0
 621 0300 00000000 		.word	.LANCHOR1
 622 0304 55AAFFFF 		.word	-21931
 623 0308 52526141 		.word	1096897106
 624 030c 72724161 		.word	1631679090
 625 0310 00000000 		.word	.LANCHOR2
 627              		.section	.text.sync_window.part.2,"ax",%progbits
 628              		.align	1
 629              		.thumb
 630              		.thumb_func
 632              	sync_window.part.2:
 633              		@ args = 0, pretend = 0, frame = 0
 634              		@ frame_needed = 0, uses_anonymous_args = 0
 635 0000 F8B5     		push	{r3, r4, r5, r6, r7, lr}
 636 0002 456B     		ldr	r5, [r0, #52]
 637 0004 00F13807 		add	r7, r0, #56
 638 0008 0446     		mov	r4, r0
 639 000a 3946     		mov	r1, r7
 640 000c 4078     		ldrb	r0, [r0, #1]	@ zero_extendqisi2
 641 000e 2A46     		mov	r2, r5
 642 0010 0123     		movs	r3, #1
 643 0012 FFF7FEFF 		bl	disk_write
 644 0016 B0B9     		cbnz	r0, .L136
 645 0018 A36A     		ldr	r3, [r4, #40]
 646 001a 2071     		strb	r0, [r4, #4]
 647 001c 9D42     		cmp	r5, r3
 648 001e 01D2     		bcs	.L132
 649              	.L133:
 650 0020 0020     		movs	r0, #0
 651 0022 F8BD     		pop	{r3, r4, r5, r6, r7, pc}
 652              	.L132:
 653 0024 226A     		ldr	r2, [r4, #32]
 654 0026 1344     		add	r3, r3, r2
 655 0028 9D42     		cmp	r5, r3
 656 002a F9D2     		bcs	.L133
 657 002c E678     		ldrb	r6, [r4, #3]	@ zero_extendqisi2
 658              	.L134:
 659 002e 012E     		cmp	r6, #1
 660 0030 F6D9     		bls	.L133
 661 0032 236A     		ldr	r3, [r4, #32]
 662 0034 6078     		ldrb	r0, [r4, #1]	@ zero_extendqisi2
 663 0036 1D44     		add	r5, r5, r3
 664 0038 3946     		mov	r1, r7
 665 003a 2A46     		mov	r2, r5
 666 003c 0123     		movs	r3, #1
 667 003e FFF7FEFF 		bl	disk_write
 668 0042 013E     		subs	r6, r6, #1
 669 0044 F3E7     		b	.L134
 670              	.L136:
 671 0046 0120     		movs	r0, #1
 672 0048 F8BD     		pop	{r3, r4, r5, r6, r7, pc}
 674              		.section	.text.sync_window,"ax",%progbits
 675              		.align	1
 676              		.thumb
 677              		.thumb_func
 679              	sync_window:
 680              		@ args = 0, pretend = 0, frame = 0
 681              		@ frame_needed = 0, uses_anonymous_args = 0
 682              		@ link register save eliminated.
 683 0000 0379     		ldrb	r3, [r0, #4]	@ zero_extendqisi2
 684 0002 0BB1     		cbz	r3, .L138
 685 0004 FFF7FEBF 		b	sync_window.part.2
 686              	.L138:
 687 0008 1846     		mov	r0, r3
 688 000a 7047     		bx	lr
 690              		.section	.text.sync_fs,"ax",%progbits
 691              		.align	1
 692              		.thumb
 693              		.thumb_func
 695              	sync_fs:
 696              		@ args = 0, pretend = 0, frame = 0
 697              		@ frame_needed = 0, uses_anonymous_args = 0
 698 0000 70B5     		push	{r4, r5, r6, lr}
 699 0002 0446     		mov	r4, r0
 700 0004 FFF7FEFF 		bl	sync_window
 701 0008 0546     		mov	r5, r0
 702 000a 002D     		cmp	r5, #0
 703 000c 51D1     		bne	.L140
 704 000e 2378     		ldrb	r3, [r4]	@ zero_extendqisi2
 705 0010 032B     		cmp	r3, #3
 706 0012 46D1     		bne	.L141
 707 0014 6379     		ldrb	r3, [r4, #5]	@ zero_extendqisi2
 708 0016 002B     		cmp	r3, #0
 709 0018 43D0     		beq	.L141
 710 001a 04F13806 		add	r6, r4, #56
 711 001e 3046     		mov	r0, r6
 712 0020 2946     		mov	r1, r5
 713 0022 4FF40072 		mov	r2, #512
 714 0026 6563     		str	r5, [r4, #52]
 715 0028 FFF7FEFF 		bl	mem_set
 716 002c 5523     		movs	r3, #85
 717 002e 84F83632 		strb	r3, [r4, #566]
 718 0032 AA23     		movs	r3, #170
 719 0034 84F83732 		strb	r3, [r4, #567]
 720 0038 5223     		movs	r3, #82
 721 003a 84F83830 		strb	r3, [r4, #56]
 722 003e 84F83930 		strb	r3, [r4, #57]
 723 0042 6123     		movs	r3, #97
 724 0044 84F83A30 		strb	r3, [r4, #58]
 725 0048 84F81F32 		strb	r3, [r4, #543]
 726 004c 2369     		ldr	r3, [r4, #16]
 727 004e 4122     		movs	r2, #65
 728 0050 84F83B20 		strb	r2, [r4, #59]
 729 0054 84F81E22 		strb	r2, [r4, #542]
 730 0058 C3F30722 		ubfx	r2, r3, #8, #8
 731 005c 84F82032 		strb	r3, [r4, #544]
 732 0060 84F82122 		strb	r2, [r4, #545]
 733 0064 1A0C     		lsrs	r2, r3, #16
 734 0066 1B0E     		lsrs	r3, r3, #24
 735 0068 84F82332 		strb	r3, [r4, #547]
 736 006c E368     		ldr	r3, [r4, #12]
 737 006e 84F82222 		strb	r2, [r4, #546]
 738 0072 C3F30722 		ubfx	r2, r3, #8, #8
 739 0076 7221     		movs	r1, #114
 740 0078 84F82432 		strb	r3, [r4, #548]
 741 007c 84F82522 		strb	r2, [r4, #549]
 742 0080 1A0C     		lsrs	r2, r3, #16
 743 0082 1B0E     		lsrs	r3, r3, #24
 744 0084 84F81C12 		strb	r1, [r4, #540]
 745 0088 84F81D12 		strb	r1, [r4, #541]
 746 008c 84F82622 		strb	r2, [r4, #550]
 747 0090 84F82732 		strb	r3, [r4, #551]
 748 0094 6078     		ldrb	r0, [r4, #1]	@ zero_extendqisi2
 749 0096 3146     		mov	r1, r6
 750 0098 6269     		ldr	r2, [r4, #20]
 751 009a 0123     		movs	r3, #1
 752 009c FFF7FEFF 		bl	disk_write
 753 00a0 6571     		strb	r5, [r4, #5]
 754              	.L141:
 755 00a2 0021     		movs	r1, #0
 756 00a4 6078     		ldrb	r0, [r4, #1]	@ zero_extendqisi2
 757 00a6 0A46     		mov	r2, r1
 758 00a8 FFF7FEFF 		bl	disk_ioctl
 759 00ac 0030     		adds	r0, r0, #0
 760 00ae 18BF     		it	ne
 761 00b0 0120     		movne	r0, #1
 762              	.L140:
 763 00b2 70BD     		pop	{r4, r5, r6, pc}
 765              		.section	.text.move_window,"ax",%progbits
 766              		.align	1
 767              		.thumb
 768              		.thumb_func
 770              	move_window:
 771              		@ args = 0, pretend = 0, frame = 0
 772              		@ frame_needed = 0, uses_anonymous_args = 0
 773 0000 38B5     		push	{r3, r4, r5, lr}
 774 0002 436B     		ldr	r3, [r0, #52]
 775 0004 0446     		mov	r4, r0
 776 0006 9942     		cmp	r1, r3
 777 0008 0D46     		mov	r5, r1
 778 000a 0CD0     		beq	.L148
 779 000c FFF7FEFF 		bl	sync_window
 780 0010 58B9     		cbnz	r0, .L149
 781 0012 6078     		ldrb	r0, [r4, #1]	@ zero_extendqisi2
 782 0014 04F13801 		add	r1, r4, #56
 783 0018 2A46     		mov	r2, r5
 784 001a 0123     		movs	r3, #1
 785 001c FFF7FEFF 		bl	disk_read
 786 0020 18B9     		cbnz	r0, .L149
 787 0022 6563     		str	r5, [r4, #52]
 788 0024 38BD     		pop	{r3, r4, r5, pc}
 789              	.L148:
 790 0026 0020     		movs	r0, #0
 791 0028 38BD     		pop	{r3, r4, r5, pc}
 792              	.L149:
 793 002a 0120     		movs	r0, #1
 794 002c 38BD     		pop	{r3, r4, r5, pc}
 796              		.section	.text.clust2sect,"ax",%progbits
 797              		.align	1
 798              		.global	clust2sect
 799              		.thumb
 800              		.thumb_func
 802              	clust2sect:
 803              		@ args = 0, pretend = 0, frame = 0
 804              		@ frame_needed = 0, uses_anonymous_args = 0
 805              		@ link register save eliminated.
 806 0000 C369     		ldr	r3, [r0, #28]
 807 0002 0239     		subs	r1, r1, #2
 808 0004 023B     		subs	r3, r3, #2
 809 0006 9942     		cmp	r1, r3
 810 0008 04D2     		bcs	.L153
 811 000a 8278     		ldrb	r2, [r0, #2]	@ zero_extendqisi2
 812 000c 036B     		ldr	r3, [r0, #48]
 813 000e 02FB0130 		mla	r0, r2, r1, r3
 814 0012 7047     		bx	lr
 815              	.L153:
 816 0014 0020     		movs	r0, #0
 817 0016 7047     		bx	lr
 819              		.section	.text.get_fat,"ax",%progbits
 820              		.align	1
 821              		.global	get_fat
 822              		.thumb
 823              		.thumb_func
 825              	get_fat:
 826              		@ args = 0, pretend = 0, frame = 0
 827              		@ frame_needed = 0, uses_anonymous_args = 0
 828 0000 0129     		cmp	r1, #1
 829 0002 F8B5     		push	{r3, r4, r5, r6, r7, lr}
 830 0004 0446     		mov	r4, r0
 831 0006 0D46     		mov	r5, r1
 832 0008 5DD9     		bls	.L164
 833 000a C369     		ldr	r3, [r0, #28]
 834 000c 9942     		cmp	r1, r3
 835 000e 5AD2     		bcs	.L164
 836 0010 0378     		ldrb	r3, [r0]	@ zero_extendqisi2
 837 0012 022B     		cmp	r3, #2
 838 0014 27D0     		beq	.L157
 839 0016 032B     		cmp	r3, #3
 840 0018 37D0     		beq	.L158
 841 001a 012B     		cmp	r3, #1
 842 001c 50D1     		bne	.L166
 843 001e 01EB5106 		add	r6, r1, r1, lsr #1
 844 0022 816A     		ldr	r1, [r0, #40]
 845 0024 01EB5621 		add	r1, r1, r6, lsr #9
 846 0028 FFF7FEFF 		bl	move_window
 847 002c 0028     		cmp	r0, #0
 848 002e 47D1     		bne	.L166
 849 0030 A16A     		ldr	r1, [r4, #40]
 850 0032 C6F30803 		ubfx	r3, r6, #0, #9
 851 0036 0136     		adds	r6, r6, #1
 852 0038 2344     		add	r3, r3, r4
 853 003a 2046     		mov	r0, r4
 854 003c 01EB5621 		add	r1, r1, r6, lsr #9
 855 0040 93F83870 		ldrb	r7, [r3, #56]	@ zero_extendqisi2
 856 0044 FFF7FEFF 		bl	move_window
 857 0048 0028     		cmp	r0, #0
 858 004a 39D1     		bne	.L166
 859 004c C6F30806 		ubfx	r6, r6, #0, #9
 860 0050 3444     		add	r4, r4, r6
 861 0052 94F83800 		ldrb	r0, [r4, #56]	@ zero_extendqisi2
 862 0056 47EA0020 		orr	r0, r7, r0, lsl #8
 863 005a EF07     		lsls	r7, r5, #31
 864 005c 4CBF     		ite	mi
 865 005e 0009     		lsrmi	r0, r0, #4
 866 0060 C0F30B00 		ubfxpl	r0, r0, #0, #12
 867 0064 F8BD     		pop	{r3, r4, r5, r6, r7, pc}
 868              	.L157:
 869 0066 816A     		ldr	r1, [r0, #40]
 870 0068 01EB1521 		add	r1, r1, r5, lsr #8
 871 006c FFF7FEFF 		bl	move_window
 872 0070 30BB     		cbnz	r0, .L166
 873 0072 6D00     		lsls	r5, r5, #1
 874 0074 05F4FF75 		and	r5, r5, #510
 875 0078 6319     		adds	r3, r4, r5
 876 007a 2C44     		add	r4, r4, r5
 877 007c 93F83830 		ldrb	r3, [r3, #56]	@ zero_extendqisi2
 878 0080 94F83900 		ldrb	r0, [r4, #57]	@ zero_extendqisi2
 879 0084 43EA0020 		orr	r0, r3, r0, lsl #8
 880 0088 F8BD     		pop	{r3, r4, r5, r6, r7, pc}
 881              	.L158:
 882 008a 816A     		ldr	r1, [r0, #40]
 883 008c 01EBD511 		add	r1, r1, r5, lsr #7
 884 0090 FFF7FEFF 		bl	move_window
 885 0094 A0B9     		cbnz	r0, .L166
 886 0096 AD00     		lsls	r5, r5, #2
 887 0098 05F4FE75 		and	r5, r5, #508
 888 009c 05F13803 		add	r3, r5, #56
 889 00a0 2344     		add	r3, r3, r4
 890 00a2 D878     		ldrb	r0, [r3, #3]	@ zero_extendqisi2
 891 00a4 9A78     		ldrb	r2, [r3, #2]	@ zero_extendqisi2
 892 00a6 0006     		lsls	r0, r0, #24
 893 00a8 5B78     		ldrb	r3, [r3, #1]	@ zero_extendqisi2
 894 00aa 40EA0240 		orr	r0, r0, r2, lsl #16
 895 00ae 2C44     		add	r4, r4, r5
 896 00b0 40EA0320 		orr	r0, r0, r3, lsl #8
 897 00b4 94F83830 		ldrb	r3, [r4, #56]	@ zero_extendqisi2
 898 00b8 1843     		orrs	r0, r0, r3
 899 00ba 20F07040 		bic	r0, r0, #-268435456
 900 00be F8BD     		pop	{r3, r4, r5, r6, r7, pc}
 901              	.L166:
 902 00c0 4FF0FF30 		mov	r0, #-1
 903 00c4 F8BD     		pop	{r3, r4, r5, r6, r7, pc}
 904              	.L164:
 905 00c6 0120     		movs	r0, #1
 906 00c8 F8BD     		pop	{r3, r4, r5, r6, r7, pc}
 908              		.section	.text.dir_sdi,"ax",%progbits
 909              		.align	1
 910              		.thumb
 911              		.thumb_func
 913              	dir_sdi:
 914              		@ args = 0, pretend = 0, frame = 0
 915              		@ frame_needed = 0, uses_anonymous_args = 0
 916 0000 70B5     		push	{r4, r5, r6, lr}
 917 0002 0446     		mov	r4, r0
 918 0004 0D46     		mov	r5, r1
 919 0006 E180     		strh	r1, [r4, #6]	@ movhi
 920 0008 8168     		ldr	r1, [r0, #8]
 921 000a 0129     		cmp	r1, #1
 922 000c 01D1     		bne	.L168
 923              	.L170:
 924 000e 0220     		movs	r0, #2
 925 0010 70BD     		pop	{r4, r5, r6, pc}
 926              	.L168:
 927 0012 0368     		ldr	r3, [r0]
 928 0014 DA69     		ldr	r2, [r3, #28]
 929 0016 9142     		cmp	r1, r2
 930 0018 F9D2     		bcs	.L170
 931 001a 71B9     		cbnz	r1, .L171
 932 001c 1A78     		ldrb	r2, [r3]	@ zero_extendqisi2
 933 001e 032A     		cmp	r2, #3
 934 0020 01D1     		bne	.L172
 935 0022 D96A     		ldr	r1, [r3, #44]
 936 0024 49B9     		cbnz	r1, .L171
 937              	.L172:
 938 0026 0022     		movs	r2, #0
 939 0028 E260     		str	r2, [r4, #12]
 940 002a 1A89     		ldrh	r2, [r3, #8]
 941 002c AA42     		cmp	r2, r5
 942 002e EED9     		bls	.L170
 943 0030 DB6A     		ldr	r3, [r3, #44]
 944 0032 03EB1513 		add	r3, r3, r5, lsr #4
 945 0036 2361     		str	r3, [r4, #16]
 946 0038 19E0     		b	.L173
 947              	.L171:
 948 003a 9E78     		ldrb	r6, [r3, #2]	@ zero_extendqisi2
 949 003c 3601     		lsls	r6, r6, #4
 950              	.L174:
 951 003e B542     		cmp	r5, r6
 952 0040 0ED3     		bcc	.L177
 953 0042 2068     		ldr	r0, [r4]
 954 0044 FFF7FEFF 		bl	get_fat
 955 0048 431C     		adds	r3, r0, #1
 956 004a 0146     		mov	r1, r0
 957 004c 18D0     		beq	.L176
 958 004e 0128     		cmp	r0, #1
 959 0050 DDD9     		bls	.L170
 960 0052 2368     		ldr	r3, [r4]
 961 0054 DB69     		ldr	r3, [r3, #28]
 962 0056 9842     		cmp	r0, r3
 963 0058 D9D2     		bcs	.L170
 964 005a AD1B     		subs	r5, r5, r6
 965 005c ADB2     		uxth	r5, r5
 966 005e EEE7     		b	.L174
 967              	.L177:
 968 0060 E160     		str	r1, [r4, #12]
 969 0062 2068     		ldr	r0, [r4]
 970 0064 FFF7FEFF 		bl	clust2sect
 971 0068 00EB1510 		add	r0, r0, r5, lsr #4
 972 006c 2061     		str	r0, [r4, #16]
 973              	.L173:
 974 006e 05F00F05 		and	r5, r5, #15
 975 0072 2368     		ldr	r3, [r4]
 976 0074 6D01     		lsls	r5, r5, #5
 977 0076 3835     		adds	r5, r5, #56
 978 0078 2B44     		add	r3, r3, r5
 979 007a 6361     		str	r3, [r4, #20]
 980 007c 0020     		movs	r0, #0
 981 007e 70BD     		pop	{r4, r5, r6, pc}
 982              	.L176:
 983 0080 0120     		movs	r0, #1
 984 0082 70BD     		pop	{r4, r5, r6, pc}
 986              		.section	.text.put_fat,"ax",%progbits
 987              		.align	1
 988              		.global	put_fat
 989              		.thumb
 990              		.thumb_func
 992              	put_fat:
 993              		@ args = 0, pretend = 0, frame = 0
 994              		@ frame_needed = 0, uses_anonymous_args = 0
 995 0000 0129     		cmp	r1, #1
 996 0002 F8B5     		push	{r3, r4, r5, r6, r7, lr}
 997 0004 0446     		mov	r4, r0
 998 0006 0D46     		mov	r5, r1
 999 0008 1646     		mov	r6, r2
 1000 000a 6FD9     		bls	.L189
 1001 000c C369     		ldr	r3, [r0, #28]
 1002 000e 9942     		cmp	r1, r3
 1003 0010 6CD2     		bcs	.L189
 1004 0012 0378     		ldrb	r3, [r0]	@ zero_extendqisi2
 1005 0014 022B     		cmp	r3, #2
 1006 0016 38D0     		beq	.L181
 1007 0018 032B     		cmp	r3, #3
 1008 001a 47D0     		beq	.L182
 1009 001c 012B     		cmp	r3, #1
 1010 001e 61D1     		bne	.L191
 1011 0020 01EB5107 		add	r7, r1, r1, lsr #1
 1012 0024 816A     		ldr	r1, [r0, #40]
 1013 0026 01EB5721 		add	r1, r1, r7, lsr #9
 1014 002a FFF7FEFF 		bl	move_window
 1015 002e 0028     		cmp	r0, #0
 1016 0030 59D1     		bne	.L180
 1017 0032 C7F30803 		ubfx	r3, r7, #0, #9
 1018 0036 15F00105 		ands	r5, r5, #1
 1019 003a 2344     		add	r3, r3, r4
 1020 003c F2B2     		uxtb	r2, r6
 1021 003e 06D0     		beq	.L185
 1022 0040 93F83810 		ldrb	r1, [r3, #56]	@ zero_extendqisi2
 1023 0044 01F00F01 		and	r1, r1, #15
 1024 0048 41EA0212 		orr	r2, r1, r2, lsl #4
 1025 004c D2B2     		uxtb	r2, r2
 1026              	.L185:
 1027 004e A16A     		ldr	r1, [r4, #40]
 1028 0050 83F83820 		strb	r2, [r3, #56]
 1029 0054 0137     		adds	r7, r7, #1
 1030 0056 0123     		movs	r3, #1
 1031 0058 2371     		strb	r3, [r4, #4]
 1032 005a 2046     		mov	r0, r4
 1033 005c 01EB5721 		add	r1, r1, r7, lsr #9
 1034 0060 FFF7FEFF 		bl	move_window
 1035 0064 0028     		cmp	r0, #0
 1036 0066 3ED1     		bne	.L180
 1037 0068 C7F30807 		ubfx	r7, r7, #0, #9
 1038 006c 2744     		add	r7, r7, r4
 1039 006e 15B1     		cbz	r5, .L186
 1040 0070 C6F30716 		ubfx	r6, r6, #4, #8
 1041 0074 06E0     		b	.L187
 1042              	.L186:
 1043 0076 97F83830 		ldrb	r3, [r7, #56]	@ zero_extendqisi2
 1044 007a C6F30326 		ubfx	r6, r6, #8, #4
 1045 007e 23F00F03 		bic	r3, r3, #15
 1046 0082 1E43     		orrs	r6, r6, r3
 1047              	.L187:
 1048 0084 87F83860 		strb	r6, [r7, #56]
 1049 0088 2DE0     		b	.L180
 1050              	.L181:
 1051 008a 816A     		ldr	r1, [r0, #40]
 1052 008c 01EB1521 		add	r1, r1, r5, lsr #8
 1053 0090 FFF7FEFF 		bl	move_window
 1054 0094 38BB     		cbnz	r0, .L180
 1055 0096 6D00     		lsls	r5, r5, #1
 1056 0098 05F4FF75 		and	r5, r5, #510
 1057 009c 6319     		adds	r3, r4, r5
 1058 009e 83F83860 		strb	r6, [r3, #56]
 1059 00a2 C6F30726 		ubfx	r6, r6, #8, #8
 1060 00a6 83F83960 		strb	r6, [r3, #57]
 1061 00aa 1CE0     		b	.L180
 1062              	.L182:
 1063 00ac 816A     		ldr	r1, [r0, #40]
 1064 00ae 01EBD511 		add	r1, r1, r5, lsr #7
 1065 00b2 FFF7FEFF 		bl	move_window
 1066 00b6 B0B9     		cbnz	r0, .L180
 1067 00b8 AD00     		lsls	r5, r5, #2
 1068 00ba 05F4FE75 		and	r5, r5, #508
 1069 00be 05F13803 		add	r3, r5, #56
 1070 00c2 2344     		add	r3, r3, r4
 1071 00c4 DA78     		ldrb	r2, [r3, #3]	@ zero_extendqisi2
 1072 00c6 2544     		add	r5, r5, r4
 1073 00c8 1206     		lsls	r2, r2, #24
 1074 00ca 02F07042 		and	r2, r2, #-268435456
 1075 00ce 1643     		orrs	r6, r6, r2
 1076 00d0 C6F30722 		ubfx	r2, r6, #8, #8
 1077 00d4 85F83860 		strb	r6, [r5, #56]
 1078 00d8 5A70     		strb	r2, [r3, #1]
 1079 00da 320C     		lsrs	r2, r6, #16
 1080 00dc 360E     		lsrs	r6, r6, #24
 1081 00de 9A70     		strb	r2, [r3, #2]
 1082 00e0 DE70     		strb	r6, [r3, #3]
 1083 00e2 00E0     		b	.L180
 1084              	.L191:
 1085 00e4 0220     		movs	r0, #2
 1086              	.L180:
 1087 00e6 0123     		movs	r3, #1
 1088 00e8 2371     		strb	r3, [r4, #4]
 1089 00ea F8BD     		pop	{r3, r4, r5, r6, r7, pc}
 1090              	.L189:
 1091 00ec 0220     		movs	r0, #2
 1092 00ee F8BD     		pop	{r3, r4, r5, r6, r7, pc}
 1094              		.section	.text.create_chain,"ax",%progbits
 1095              		.align	1
 1096              		.thumb
 1097              		.thumb_func
 1099              	create_chain:
 1100              		@ args = 0, pretend = 0, frame = 0
 1101              		@ frame_needed = 0, uses_anonymous_args = 0
 1102 0000 F8B5     		push	{r3, r4, r5, r6, r7, lr}
 1103 0002 0546     		mov	r5, r0
 1104 0004 0F46     		mov	r7, r1
 1105 0006 31B9     		cbnz	r1, .L193
 1106 0008 C668     		ldr	r6, [r0, #12]
 1107 000a 6EB1     		cbz	r6, .L208
 1108 000c C369     		ldr	r3, [r0, #28]
 1109 000e 9E42     		cmp	r6, r3
 1110 0010 28BF     		it	cs
 1111 0012 0126     		movcs	r6, #1
 1112 0014 09E0     		b	.L194
 1113              	.L193:
 1114 0016 FFF7FEFF 		bl	get_fat
 1115 001a 0128     		cmp	r0, #1
 1116 001c 3BD9     		bls	.L221
 1117 001e EB69     		ldr	r3, [r5, #28]
 1118 0020 9842     		cmp	r0, r3
 1119 0022 39D3     		bcc	.L196
 1120 0024 3E46     		mov	r6, r7
 1121 0026 00E0     		b	.L194
 1122              	.L208:
 1123 0028 0126     		movs	r6, #1
 1124              	.L194:
 1125 002a 3446     		mov	r4, r6
 1126              	.L202:
 1127 002c EB69     		ldr	r3, [r5, #28]
 1128 002e 0134     		adds	r4, r4, #1
 1129 0030 9C42     		cmp	r4, r3
 1130 0032 04D3     		bcc	.L197
 1131 0034 012E     		cmp	r6, #1
 1132 0036 01D8     		bhi	.L211
 1133              	.L201:
 1134 0038 0020     		movs	r0, #0
 1135 003a F8BD     		pop	{r3, r4, r5, r6, r7, pc}
 1136              	.L211:
 1137 003c 0224     		movs	r4, #2
 1138              	.L197:
 1139 003e 2846     		mov	r0, r5
 1140 0040 2146     		mov	r1, r4
 1141 0042 FFF7FEFF 		bl	get_fat
 1142 0046 48B1     		cbz	r0, .L198
 1143 0048 411C     		adds	r1, r0, #1
 1144 004a 02D1     		bne	.L199
 1145              	.L207:
 1146 004c 4FF0FF30 		mov	r0, #-1
 1147 0050 F8BD     		pop	{r3, r4, r5, r6, r7, pc}
 1148              	.L199:
 1149 0052 0128     		cmp	r0, #1
 1150 0054 1FD0     		beq	.L221
 1151 0056 B442     		cmp	r4, r6
 1152 0058 E8D1     		bne	.L202
 1153 005a EDE7     		b	.L201
 1154              	.L198:
 1155 005c 2846     		mov	r0, r5
 1156 005e 2146     		mov	r1, r4
 1157 0060 6FF07042 		mvn	r2, #-268435456
 1158 0064 FFF7FEFF 		bl	put_fat
 1159 0068 98B9     		cbnz	r0, .L203
 1160 006a 47B9     		cbnz	r7, .L204
 1161              	.L206:
 1162 006c 2B69     		ldr	r3, [r5, #16]
 1163 006e EC60     		str	r4, [r5, #12]
 1164 0070 5A1C     		adds	r2, r3, #1
 1165 0072 0CD0     		beq	.L222
 1166 0074 013B     		subs	r3, r3, #1
 1167 0076 2B61     		str	r3, [r5, #16]
 1168 0078 0123     		movs	r3, #1
 1169 007a 6B71     		strb	r3, [r5, #5]
 1170 007c 07E0     		b	.L222
 1171              	.L204:
 1172 007e 2846     		mov	r0, r5
 1173 0080 3946     		mov	r1, r7
 1174 0082 2246     		mov	r2, r4
 1175 0084 FFF7FEFF 		bl	put_fat
 1176 0088 0028     		cmp	r0, #0
 1177 008a EFD0     		beq	.L206
 1178 008c 01E0     		b	.L203
 1179              	.L222:
 1180 008e 2046     		mov	r0, r4
 1181 0090 F8BD     		pop	{r3, r4, r5, r6, r7, pc}
 1182              	.L203:
 1183 0092 0128     		cmp	r0, #1
 1184 0094 DAD0     		beq	.L207
 1185              	.L221:
 1186 0096 0120     		movs	r0, #1
 1187              	.L196:
 1188 0098 F8BD     		pop	{r3, r4, r5, r6, r7, pc}
 1190              		.section	.text.dir_next,"ax",%progbits
 1191              		.align	1
 1192              		.thumb
 1193              		.thumb_func
 1195              	dir_next:
 1196              		@ args = 0, pretend = 0, frame = 0
 1197              		@ frame_needed = 0, uses_anonymous_args = 0
 1198 0000 2DE9F843 		push	{r3, r4, r5, r6, r7, r8, r9, lr}
 1199 0004 C688     		ldrh	r6, [r0, #6]
 1200 0006 0446     		mov	r4, r0
 1201 0008 0136     		adds	r6, r6, #1
 1202 000a B6B2     		uxth	r6, r6
 1203 000c 0F46     		mov	r7, r1
 1204 000e 16B9     		cbnz	r6, .L224
 1205              	.L226:
 1206 0010 0420     		movs	r0, #4
 1207 0012 BDE8F883 		pop	{r3, r4, r5, r6, r7, r8, r9, pc}
 1208              	.L224:
 1209 0016 0369     		ldr	r3, [r0, #16]
 1210 0018 002B     		cmp	r3, #0
 1211 001a F9D0     		beq	.L226
 1212 001c 16F00F08 		ands	r8, r6, #15
 1213 0020 5CD1     		bne	.L228
 1214 0022 C168     		ldr	r1, [r0, #12]
 1215 0024 0133     		adds	r3, r3, #1
 1216 0026 0361     		str	r3, [r0, #16]
 1217 0028 0068     		ldr	r0, [r0]
 1218 002a 19B9     		cbnz	r1, .L229
 1219 002c 0389     		ldrh	r3, [r0, #8]
 1220 002e B342     		cmp	r3, r6
 1221 0030 EED9     		bls	.L226
 1222 0032 53E0     		b	.L228
 1223              	.L229:
 1224 0034 8278     		ldrb	r2, [r0, #2]	@ zero_extendqisi2
 1225 0036 013A     		subs	r2, r2, #1
 1226 0038 12EA1612 		ands	r2, r2, r6, lsr #4
 1227 003c 4ED1     		bne	.L228
 1228 003e FFF7FEFF 		bl	get_fat
 1229 0042 0128     		cmp	r0, #1
 1230 0044 0546     		mov	r5, r0
 1231 0046 02D8     		bhi	.L231
 1232              	.L234:
 1233 0048 0220     		movs	r0, #2
 1234 004a BDE8F883 		pop	{r3, r4, r5, r6, r7, r8, r9, pc}
 1235              	.L231:
 1236 004e 431C     		adds	r3, r0, #1
 1237 0050 02D1     		bne	.L232
 1238              	.L235:
 1239 0052 0120     		movs	r0, #1
 1240 0054 BDE8F883 		pop	{r3, r4, r5, r6, r7, r8, r9, pc}
 1241              	.L232:
 1242 0058 2068     		ldr	r0, [r4]
 1243 005a C369     		ldr	r3, [r0, #28]
 1244 005c 9D42     		cmp	r5, r3
 1245 005e 37D3     		bcc	.L233
 1246 0060 002F     		cmp	r7, #0
 1247 0062 D5D0     		beq	.L226
 1248 0064 E168     		ldr	r1, [r4, #12]
 1249 0066 FFF7FEFF 		bl	create_chain
 1250 006a 0546     		mov	r5, r0
 1251 006c 0028     		cmp	r0, #0
 1252 006e 40D0     		beq	.L238
 1253 0070 0128     		cmp	r0, #1
 1254 0072 E9D0     		beq	.L234
 1255 0074 0130     		adds	r0, r0, #1
 1256 0076 ECD0     		beq	.L235
 1257 0078 2068     		ldr	r0, [r4]
 1258 007a FFF7FEFF 		bl	sync_window
 1259 007e 0746     		mov	r7, r0
 1260 0080 0028     		cmp	r0, #0
 1261 0082 E6D1     		bne	.L235
 1262 0084 2068     		ldr	r0, [r4]
 1263 0086 3946     		mov	r1, r7
 1264 0088 3830     		adds	r0, r0, #56
 1265 008a 4FF40072 		mov	r2, #512
 1266 008e FFF7FEFF 		bl	mem_set
 1267 0092 D4F800C0 		ldr	ip, [r4]
 1268 0096 2946     		mov	r1, r5
 1269 0098 6046     		mov	r0, ip
 1270 009a FFF7FEFF 		bl	clust2sect
 1271 009e 4FF00109 		mov	r9, #1
 1272 00a2 CCF83400 		str	r0, [ip, #52]
 1273              	.L236:
 1274 00a6 2368     		ldr	r3, [r4]
 1275 00a8 9A78     		ldrb	r2, [r3, #2]	@ zero_extendqisi2
 1276 00aa BA42     		cmp	r2, r7
 1277 00ac 0DD9     		bls	.L251
 1278 00ae 83F80490 		strb	r9, [r3, #4]
 1279 00b2 2068     		ldr	r0, [r4]
 1280 00b4 FFF7FEFF 		bl	sync_window
 1281 00b8 0028     		cmp	r0, #0
 1282 00ba CAD1     		bne	.L235
 1283 00bc 2368     		ldr	r3, [r4]
 1284 00be 0137     		adds	r7, r7, #1
 1285 00c0 5A6B     		ldr	r2, [r3, #52]
 1286 00c2 FFB2     		uxtb	r7, r7
 1287 00c4 0132     		adds	r2, r2, #1
 1288 00c6 5A63     		str	r2, [r3, #52]
 1289 00c8 EDE7     		b	.L236
 1290              	.L251:
 1291 00ca 5A6B     		ldr	r2, [r3, #52]
 1292 00cc D71B     		subs	r7, r2, r7
 1293 00ce 5F63     		str	r7, [r3, #52]
 1294              	.L233:
 1295 00d0 E560     		str	r5, [r4, #12]
 1296 00d2 2068     		ldr	r0, [r4]
 1297 00d4 2946     		mov	r1, r5
 1298 00d6 FFF7FEFF 		bl	clust2sect
 1299 00da 2061     		str	r0, [r4, #16]
 1300              	.L228:
 1301 00dc 2368     		ldr	r3, [r4]
 1302 00de 4FEA4818 		lsl	r8, r8, #5
 1303 00e2 08F13808 		add	r8, r8, #56
 1304 00e6 4344     		add	r3, r3, r8
 1305 00e8 E680     		strh	r6, [r4, #6]	@ movhi
 1306 00ea 6361     		str	r3, [r4, #20]
 1307 00ec 0020     		movs	r0, #0
 1308 00ee BDE8F883 		pop	{r3, r4, r5, r6, r7, r8, r9, pc}
 1309              	.L238:
 1310 00f2 0720     		movs	r0, #7
 1311 00f4 BDE8F883 		pop	{r3, r4, r5, r6, r7, r8, r9, pc}
 1313              		.section	.text.dir_find.part.6,"ax",%progbits
 1314              		.align	1
 1315              		.thumb
 1316              		.thumb_func
 1318              	dir_find.part.6:
 1319              		@ args = 0, pretend = 0, frame = 8
 1320              		@ frame_needed = 0, uses_anonymous_args = 0
 1321 0000 2DE9F74F 		push	{r0, r1, r2, r4, r5, r6, r7, r8, r9, r10, fp, lr}
 1322 0004 4FF0FF08 		mov	r8, #255
 1323 0008 0646     		mov	r6, r0
 1324 000a 4446     		mov	r4, r8
 1325              	.L270:
 1326 000c 3068     		ldr	r0, [r6]
 1327 000e 3169     		ldr	r1, [r6, #16]
 1328 0010 FFF7FEFF 		bl	move_window
 1329 0014 0746     		mov	r7, r0
 1330 0016 0028     		cmp	r0, #0
 1331 0018 40F08280 		bne	.L281
 1332 001c 7569     		ldr	r5, [r6, #20]
 1333 001e 2B78     		ldrb	r3, [r5]	@ zero_extendqisi2
 1334 0020 002B     		cmp	r3, #0
 1335 0022 78D0     		beq	.L272
 1336 0024 E97A     		ldrb	r1, [r5, #11]	@ zero_extendqisi2
 1337 0026 E52B     		cmp	r3, #229
 1338 0028 01F03F02 		and	r2, r1, #63
 1339 002c 69D0     		beq	.L276
 1340 002e 0807     		lsls	r0, r1, #28
 1341 0030 02D5     		bpl	.L255
 1342 0032 0F2A     		cmp	r2, #15
 1343 0034 65D1     		bne	.L276
 1344 0036 01E0     		b	.L256
 1345              	.L255:
 1346 0038 0F2A     		cmp	r2, #15
 1347 003a 4AD1     		bne	.L257
 1348              	.L256:
 1349 003c D6F81CA0 		ldr	r10, [r6, #28]
 1350 0040 BAF1000F 		cmp	r10, #0
 1351 0044 5ED0     		beq	.L254
 1352 0046 5906     		lsls	r1, r3, #25
 1353 0048 06D5     		bpl	.L258
 1354 004a 03F0BF04 		and	r4, r3, #191
 1355 004e F388     		ldrh	r3, [r6, #6]
 1356 0050 95F80D80 		ldrb	r8, [r5, #13]	@ zero_extendqisi2
 1357 0054 3384     		strh	r3, [r6, #32]	@ movhi
 1358 0056 01E0     		b	.L259
 1359              	.L258:
 1360 0058 A342     		cmp	r3, r4
 1361 005a 52D1     		bne	.L276
 1362              	.L259:
 1363 005c 6B7B     		ldrb	r3, [r5, #13]	@ zero_extendqisi2
 1364 005e 4345     		cmp	r3, r8
 1365 0060 4FD1     		bne	.L276
 1366 0062 2F78     		ldrb	r7, [r5]	@ zero_extendqisi2
 1367 0064 0D23     		movs	r3, #13
 1368 0066 27F04007 		bic	r7, r7, #64
 1369 006a 013F     		subs	r7, r7, #1
 1370 006c 5F43     		muls	r7, r3, r7
 1371 006e 4FF0010B 		mov	fp, #1
 1372 0072 4FF00009 		mov	r9, #0
 1373              	.L264:
 1374 0076 2C4B     		ldr	r3, .L291
 1375 0078 19F80310 		ldrb	r1, [r9, r3]	@ zero_extendqisi2
 1376 007c 6818     		adds	r0, r5, r1
 1377 007e 4078     		ldrb	r0, [r0, #1]	@ zero_extendqisi2
 1378 0080 695C     		ldrb	r1, [r5, r1]	@ zero_extendqisi2
 1379 0082 41EA0020 		orr	r0, r1, r0, lsl #8
 1380 0086 BBF1000F 		cmp	fp, #0
 1381 008a 0FD0     		beq	.L260
 1382 008c FFF7FEFF 		bl	ff_wtoupper
 1383 0090 3F2F     		cmp	r7, #63
 1384 0092 8346     		mov	fp, r0
 1385 0094 35D8     		bhi	.L276
 1386 0096 791C     		adds	r1, r7, #1
 1387 0098 3AF81700 		ldrh	r0, [r10, r7, lsl #1]
 1388 009c 0191     		str	r1, [sp, #4]
 1389 009e FFF7FEFF 		bl	ff_wtoupper
 1390 00a2 8345     		cmp	fp, r0
 1391 00a4 0199     		ldr	r1, [sp, #4]
 1392 00a6 2CD1     		bne	.L276
 1393 00a8 0F46     		mov	r7, r1
 1394 00aa 03E0     		b	.L262
 1395              	.L260:
 1396 00ac 4FF6FF73 		movw	r3, #65535
 1397 00b0 9842     		cmp	r0, r3
 1398 00b2 26D1     		bne	.L276
 1399              	.L262:
 1400 00b4 09F10109 		add	r9, r9, #1
 1401 00b8 B9F10D0F 		cmp	r9, #13
 1402 00bc DBD1     		bne	.L264
 1403 00be 2B78     		ldrb	r3, [r5]	@ zero_extendqisi2
 1404 00c0 5A06     		lsls	r2, r3, #25
 1405 00c2 2AD5     		bpl	.L265
 1406 00c4 BBF1000F 		cmp	fp, #0
 1407 00c8 27D0     		beq	.L265
 1408 00ca 3AF81730 		ldrh	r3, [r10, r7, lsl #1]
 1409 00ce 23B3     		cbz	r3, .L265
 1410 00d0 17E0     		b	.L276
 1411              	.L257:
 1412 00d2 24B9     		cbnz	r4, .L266
 1413 00d4 2846     		mov	r0, r5
 1414 00d6 FFF7FEFF 		bl	sum_sfn
 1415 00da 8045     		cmp	r8, r0
 1416 00dc 20D0     		beq	.L281
 1417              	.L266:
 1418 00de 4FF0FF33 		mov	r3, #-1	@ movhi
 1419 00e2 B269     		ldr	r2, [r6, #24]
 1420 00e4 3384     		strh	r3, [r6, #32]	@ movhi
 1421 00e6 D37A     		ldrb	r3, [r2, #11]	@ zero_extendqisi2
 1422 00e8 13F00103 		ands	r3, r3, #1
 1423 00ec 09D1     		bne	.L276
 1424              	.L271:
 1425 00ee E95C     		ldrb	r1, [r5, r3]	@ zero_extendqisi2
 1426 00f0 0133     		adds	r3, r3, #1
 1427 00f2 D018     		adds	r0, r2, r3
 1428 00f4 10F8010C 		ldrb	r0, [r0, #-1]	@ zero_extendqisi2
 1429 00f8 8842     		cmp	r0, r1
 1430 00fa 02D1     		bne	.L276
 1431 00fc 0B2B     		cmp	r3, #11
 1432 00fe F6D1     		bne	.L271
 1433 0100 0EE0     		b	.L281
 1434              	.L276:
 1435 0102 FF24     		movs	r4, #255
 1436              	.L254:
 1437 0104 3046     		mov	r0, r6
 1438 0106 0021     		movs	r1, #0
 1439 0108 FFF7FEFF 		bl	dir_next
 1440 010c 0746     		mov	r7, r0
 1441 010e 0028     		cmp	r0, #0
 1442 0110 3FF47CAF 		beq	.L270
 1443 0114 04E0     		b	.L281
 1444              	.L272:
 1445 0116 0427     		movs	r7, #4
 1446 0118 02E0     		b	.L281
 1447              	.L265:
 1448 011a 013C     		subs	r4, r4, #1
 1449 011c E4B2     		uxtb	r4, r4
 1450 011e F1E7     		b	.L254
 1451              	.L281:
 1452 0120 3846     		mov	r0, r7
 1453 0122 03B0     		add	sp, sp, #12
 1454              		@ sp needed
 1455 0124 BDE8F08F 		pop	{r4, r5, r6, r7, r8, r9, r10, fp, pc}
 1456              	.L292:
 1457              		.align	2
 1458              	.L291:
 1459 0128 00000000 		.word	.LANCHOR3
 1461              		.section	.text.follow_path,"ax",%progbits
 1462              		.align	1
 1463              		.thumb
 1464              		.thumb_func
 1466              	follow_path:
 1467              		@ args = 0, pretend = 0, frame = 8
 1468              		@ frame_needed = 0, uses_anonymous_args = 0
 1469 0000 2DE9F74F 		push	{r0, r1, r2, r4, r5, r6, r7, r8, r9, r10, fp, lr}
 1470 0004 0B78     		ldrb	r3, [r1]	@ zero_extendqisi2
 1471 0006 0546     		mov	r5, r0
 1472 0008 2F2B     		cmp	r3, #47
 1473 000a 8946     		mov	r9, r1
 1474 000c 01D0     		beq	.L294
 1475 000e 5C2B     		cmp	r3, #92
 1476 0010 03D1     		bne	.L295
 1477              	.L294:
 1478 0012 09F10109 		add	r9, r9, #1
 1479 0016 0023     		movs	r3, #0
 1480 0018 01E0     		b	.L431
 1481              	.L295:
 1482 001a 0368     		ldr	r3, [r0]
 1483 001c 9B69     		ldr	r3, [r3, #24]
 1484              	.L431:
 1485 001e AB60     		str	r3, [r5, #8]
 1486 0020 99F80030 		ldrb	r3, [r9]	@ zero_extendqisi2
 1487 0024 1F2B     		cmp	r3, #31
 1488 0026 46D8     		bhi	.L300
 1489 0028 2846     		mov	r0, r5
 1490 002a 0021     		movs	r1, #0
 1491 002c FFF7FEFF 		bl	dir_sdi
 1492 0030 0023     		movs	r3, #0
 1493 0032 6B61     		str	r3, [r5, #20]
 1494 0034 63E1     		b	.L391
 1495              	.L436:
 1496 0036 5C2B     		cmp	r3, #92
 1497 0038 3DD0     		beq	.L300
 1498 003a 0027     		movs	r7, #0
 1499 003c D5F81CA0 		ldr	r10, [r5, #28]
 1500 0040 3B46     		mov	r3, r7
 1501              	.L309:
 1502 0042 E05C     		ldrb	r0, [r4, r3]	@ zero_extendqisi2
 1503 0044 03F10109 		add	r9, r3, #1
 1504 0048 1F28     		cmp	r0, #31
 1505 004a 3BD8     		bhi	.L435
 1506              	.L366:
 1507 004c A144     		add	r9, r9, r4
 1508 004e 1F28     		cmp	r0, #31
 1509 0050 94BF     		ite	ls
 1510 0052 0424     		movls	r4, #4
 1511 0054 0024     		movhi	r4, #0
 1512 0056 012F     		cmp	r7, #1
 1513 0058 3E46     		mov	r6, r7
 1514 005a 66D1     		bne	.L311
 1515              	.L314:
 1516 005c BAF80030 		ldrh	r3, [r10]
 1517 0060 2E2B     		cmp	r3, #46
 1518 0062 6AD1     		bne	.L313
 1519 0064 0023     		movs	r3, #0
 1520 0066 2AF81730 		strh	r3, [r10, r7, lsl #1]	@ movhi
 1521              	.L318:
 1522 006a AA69     		ldr	r2, [r5, #24]
 1523 006c BB42     		cmp	r3, r7
 1524 006e 2CBF     		ite	cs
 1525 0070 2021     		movcs	r1, #32
 1526 0072 2E21     		movcc	r1, #46
 1527 0074 D154     		strb	r1, [r2, r3]
 1528 0076 0133     		adds	r3, r3, #1
 1529 0078 0B2B     		cmp	r3, #11
 1530 007a F6D1     		bne	.L318
 1531 007c AB69     		ldr	r3, [r5, #24]
 1532 007e 44F02004 		orr	r4, r4, #32
 1533              	.L434:
 1534 0082 DC72     		strb	r4, [r3, #11]
 1535 0084 2846     		mov	r0, r5
 1536 0086 0021     		movs	r1, #0
 1537 0088 FFF7FEFF 		bl	dir_sdi
 1538 008c 10B9     		cbnz	r0, .L362
 1539 008e 2846     		mov	r0, r5
 1540 0090 FFF7FEFF 		bl	dir_find.part.6
 1541              	.L362:
 1542 0094 AB69     		ldr	r3, [r5, #24]
 1543 0096 DB7A     		ldrb	r3, [r3, #11]	@ zero_extendqisi2
 1544 0098 0028     		cmp	r0, #0
 1545 009a 5CD0     		beq	.L354
 1546 009c 0428     		cmp	r0, #4
 1547 009e 40F02E81 		bne	.L391
 1548 00a2 13F0200F 		tst	r3, #32
 1549 00a6 03F00400 		and	r0, r3, #4
 1550 00aa 58D0     		beq	.L355
 1551 00ac 0023     		movs	r3, #0
 1552 00ae AB60     		str	r3, [r5, #8]
 1553 00b0 6B61     		str	r3, [r5, #20]
 1554 00b2 0028     		cmp	r0, #0
 1555 00b4 51D1     		bne	.L357
 1556              	.L300:
 1557 00b6 4C46     		mov	r4, r9
 1558 00b8 2378     		ldrb	r3, [r4]	@ zero_extendqisi2
 1559 00ba 09F10109 		add	r9, r9, #1
 1560 00be 2F2B     		cmp	r3, #47
 1561 00c0 B9D1     		bne	.L436
 1562 00c2 F8E7     		b	.L300
 1563              	.L435:
 1564 00c4 2F28     		cmp	r0, #47
 1565 00c6 C1D0     		beq	.L366
 1566 00c8 5C28     		cmp	r0, #92
 1567 00ca BFD0     		beq	.L366
 1568 00cc 402F     		cmp	r7, #64
 1569 00ce 00F01081 		beq	.L303
 1570 00d2 00F17F02 		add	r2, r0, #127
 1571 00d6 D2B2     		uxtb	r2, r2
 1572 00d8 7D2A     		cmp	r2, #125
 1573 00da 12D8     		bhi	.L304
 1574 00dc 14F80920 		ldrb	r2, [r4, r9]	@ zero_extendqisi2
 1575 00e0 0233     		adds	r3, r3, #2
 1576 00e2 A2F14001 		sub	r1, r2, #64
 1577 00e6 C9B2     		uxtb	r1, r1
 1578 00e8 3E29     		cmp	r1, #62
 1579 00ea 05D9     		bls	.L305
 1580 00ec A2F18001 		sub	r1, r2, #128
 1581 00f0 C9B2     		uxtb	r1, r1
 1582 00f2 7E29     		cmp	r1, #126
 1583 00f4 00F2FD80 		bhi	.L303
 1584              	.L305:
 1585 00f8 0002     		lsls	r0, r0, #8
 1586 00fa 80B2     		uxth	r0, r0
 1587 00fc 1044     		add	r0, r0, r2
 1588 00fe 80B2     		uxth	r0, r0
 1589 0100 9946     		mov	r9, r3
 1590              	.L304:
 1591 0102 0121     		movs	r1, #1
 1592 0104 FFF7FEFF 		bl	ff_convert
 1593 0108 0028     		cmp	r0, #0
 1594 010a 00F0F280 		beq	.L303
 1595 010e 7F28     		cmp	r0, #127
 1596 0110 06D8     		bhi	.L306
 1597 0112 7C4A     		ldr	r2, .L441
 1598              	.L307:
 1599 0114 12F8013F 		ldrb	r3, [r2, #1]!	@ zero_extendqisi2
 1600 0118 13B1     		cbz	r3, .L306
 1601 011a 8342     		cmp	r3, r0
 1602 011c FAD1     		bne	.L307
 1603 011e E8E0     		b	.L303
 1604              	.L306:
 1605 0120 2AF81700 		strh	r0, [r10, r7, lsl #1]	@ movhi
 1606 0124 4B46     		mov	r3, r9
 1607 0126 0137     		adds	r7, r7, #1
 1608 0128 8BE7     		b	.L309
 1609              	.L311:
 1610 012a 022F     		cmp	r7, #2
 1611 012c 04D1     		bne	.L368
 1612 012e BAF80230 		ldrh	r3, [r10, #2]
 1613 0132 2E2B     		cmp	r3, #46
 1614 0134 01D1     		bne	.L313
 1615 0136 91E7     		b	.L314
 1616              	.L368:
 1617 0138 3E46     		mov	r6, r7
 1618              	.L313:
 1619 013a 0AEB4707 		add	r7, r10, r7, lsl #1
 1620 013e 04E0     		b	.L315
 1621              	.L322:
 1622 0140 37F8023D 		ldrh	r3, [r7, #-2]!
 1623 0144 202B     		cmp	r3, #32
 1624 0146 03D1     		bne	.L437
 1625              	.L320:
 1626 0148 013E     		subs	r6, r6, #1
 1627              	.L315:
 1628 014a 002E     		cmp	r6, #0
 1629 014c F8D1     		bne	.L322
 1630 014e D0E0     		b	.L303
 1631              	.L437:
 1632 0150 2E2B     		cmp	r3, #46
 1633 0152 F9D0     		beq	.L320
 1634 0154 14E0     		b	.L321
 1635              	.L354:
 1636 0156 5E07     		lsls	r6, r3, #29
 1637 0158 06D5     		bpl	.L438
 1638              	.L357:
 1639 015a 0020     		movs	r0, #0
 1640 015c CFE0     		b	.L391
 1641              	.L355:
 1642 015e 0028     		cmp	r0, #0
 1643 0160 14BF     		ite	ne
 1644 0162 0420     		movne	r0, #4
 1645 0164 0520     		moveq	r0, #5
 1646 0166 CAE0     		b	.L391
 1647              	.L438:
 1648 0168 6969     		ldr	r1, [r5, #20]
 1649 016a CB7A     		ldrb	r3, [r1, #11]	@ zero_extendqisi2
 1650 016c DC06     		lsls	r4, r3, #27
 1651 016e 05D5     		bpl	.L373
 1652 0170 2B68     		ldr	r3, [r5]
 1653 0172 1878     		ldrb	r0, [r3]	@ zero_extendqisi2
 1654 0174 FFF7FEFF 		bl	ld_clust.isra.0
 1655 0178 A860     		str	r0, [r5, #8]
 1656 017a 9CE7     		b	.L300
 1657              	.L373:
 1658 017c 0520     		movs	r0, #5
 1659 017e BEE0     		b	.L391
 1660              	.L321:
 1661 0180 0023     		movs	r3, #0
 1662 0182 2AF81630 		strh	r3, [r10, r6, lsl #1]	@ movhi
 1663 0186 A869     		ldr	r0, [r5, #24]
 1664 0188 2021     		movs	r1, #32
 1665 018a 0B22     		movs	r2, #11
 1666 018c 0AEB4607 		add	r7, r10, r6, lsl #1
 1667 0190 FFF7FEFF 		bl	mem_set
 1668              	.L358:
 1669 0194 3AF81310 		ldrh	r1, [r10, r3, lsl #1]
 1670 0198 2029     		cmp	r1, #32
 1671 019a 01D1     		bne	.L439
 1672              	.L323:
 1673 019c 0133     		adds	r3, r3, #1
 1674 019e F9E7     		b	.L358
 1675              	.L439:
 1676 01a0 2E29     		cmp	r1, #46
 1677 01a2 FBD0     		beq	.L323
 1678 01a4 13B1     		cbz	r3, .L324
 1679 01a6 44F00304 		orr	r4, r4, #3
 1680 01aa E4B2     		uxtb	r4, r4
 1681              	.L324:
 1682 01ac 3A46     		mov	r2, r7
 1683              	.L325:
 1684 01ae 32F8021D 		ldrh	r1, [r2, #-2]!
 1685 01b2 2E29     		cmp	r1, #46
 1686 01b4 01D0     		beq	.L329
 1687 01b6 013E     		subs	r6, r6, #1
 1688 01b8 F9D1     		bne	.L325
 1689              	.L329:
 1690 01ba 4FF00008 		mov	r8, #0
 1691 01be 4FF0080B 		mov	fp, #8
 1692 01c2 4746     		mov	r7, r8
 1693              	.L327:
 1694 01c4 3AF81300 		ldrh	r0, [r10, r3, lsl #1]
 1695 01c8 5A1C     		adds	r2, r3, #1
 1696 01ca 0028     		cmp	r0, #0
 1697 01cc 61D0     		beq	.L330
 1698 01ce 2028     		cmp	r0, #32
 1699 01d0 04D0     		beq	.L331
 1700 01d2 2E28     		cmp	r0, #46
 1701 01d4 07D1     		bne	.L332
 1702 01d6 B242     		cmp	r2, r6
 1703 01d8 00F08D80 		beq	.L333
 1704              	.L331:
 1705 01dc 44F00304 		orr	r4, r4, #3
 1706 01e0 E4B2     		uxtb	r4, r4
 1707              	.L334:
 1708 01e2 1346     		mov	r3, r2
 1709 01e4 EEE7     		b	.L327
 1710              	.L332:
 1711 01e6 D845     		cmp	r8, fp
 1712 01e8 02D2     		bcs	.L335
 1713 01ea B242     		cmp	r2, r6
 1714 01ec 17D1     		bne	.L428
 1715 01ee 82E0     		b	.L333
 1716              	.L335:
 1717 01f0 BBF10B0F 		cmp	fp, #11
 1718 01f4 05D1     		bne	.L338
 1719              	.L361:
 1720 01f6 44F00304 		orr	r4, r4, #3
 1721 01fa E4B2     		uxtb	r4, r4
 1722 01fc 4FF00B0B 		mov	fp, #11
 1723 0200 47E0     		b	.L330
 1724              	.L338:
 1725 0202 B242     		cmp	r2, r6
 1726 0204 03D0     		beq	.L339
 1727 0206 44F00304 		orr	r4, r4, #3
 1728 020a E4B2     		uxtb	r4, r4
 1729 020c 41D8     		bhi	.L330
 1730              	.L339:
 1731 020e BF00     		lsls	r7, r7, #2
 1732 0210 FFB2     		uxtb	r7, r7
 1733 0212 3246     		mov	r2, r6
 1734 0214 4FF00B0B 		mov	fp, #11
 1735 0218 4FF00808 		mov	r8, #8
 1736 021c E1E7     		b	.L334
 1737              	.L428:
 1738 021e 7F28     		cmp	r0, #127
 1739 0220 1ED9     		bls	.L340
 1740 0222 0192     		str	r2, [sp, #4]
 1741 0224 FFF7FEFF 		bl	ff_wtoupper
 1742 0228 0021     		movs	r1, #0
 1743 022a FFF7FEFF 		bl	ff_convert
 1744 022e 44F00201 		orr	r1, r4, #2
 1745 0232 FF28     		cmp	r0, #255
 1746 0234 C9B2     		uxtb	r1, r1
 1747 0236 019A     		ldr	r2, [sp, #4]
 1748 0238 10D9     		bls	.L341
 1749 023a 0BF1FF33 		add	r3, fp, #-1
 1750 023e 9845     		cmp	r8, r3
 1751 0240 04D3     		bcc	.L342
 1752 0242 44F00304 		orr	r4, r4, #3
 1753 0246 E4B2     		uxtb	r4, r4
 1754 0248 D846     		mov	r8, fp
 1755 024a CAE7     		b	.L334
 1756              	.L342:
 1757 024c AB69     		ldr	r3, [r5, #24]
 1758 024e 040A     		lsrs	r4, r0, #8
 1759 0250 03F80840 		strb	r4, [r3, r8]
 1760 0254 08F10108 		add	r8, r8, #1
 1761 0258 0C46     		mov	r4, r1
 1762 025a 14E0     		b	.L343
 1763              	.L341:
 1764 025c 38B1     		cbz	r0, .L344
 1765 025e 0C46     		mov	r4, r1
 1766              	.L340:
 1767 0260 2949     		ldr	r1, .L441+4
 1768              	.L345:
 1769 0262 11F8013F 		ldrb	r3, [r1, #1]!	@ zero_extendqisi2
 1770 0266 3BB1     		cbz	r3, .L346
 1771 0268 8342     		cmp	r3, r0
 1772 026a FAD1     		bne	.L345
 1773 026c 2146     		mov	r1, r4
 1774              	.L344:
 1775 026e 41F00304 		orr	r4, r1, #3
 1776 0272 E4B2     		uxtb	r4, r4
 1777 0274 5F20     		movs	r0, #95
 1778 0276 06E0     		b	.L343
 1779              	.L346:
 1780 0278 A0F14103 		sub	r3, r0, #65
 1781 027c 9BB2     		uxth	r3, r3
 1782 027e 192B     		cmp	r3, #25
 1783 0280 2DD8     		bhi	.L440
 1784 0282 47F00207 		orr	r7, r7, #2
 1785              	.L343:
 1786 0286 AB69     		ldr	r3, [r5, #24]
 1787 0288 03F80800 		strb	r0, [r3, r8]
 1788 028c 08F10108 		add	r8, r8, #1
 1789 0290 A7E7     		b	.L334
 1790              	.L330:
 1791 0292 AB69     		ldr	r3, [r5, #24]
 1792 0294 1A78     		ldrb	r2, [r3]	@ zero_extendqisi2
 1793 0296 E52A     		cmp	r2, #229
 1794 0298 04BF     		itt	eq
 1795 029a 0522     		moveq	r2, #5
 1796 029c 1A70     		strbeq	r2, [r3]
 1797 029e BBF1080F 		cmp	fp, #8
 1798 02a2 04BF     		itt	eq
 1799 02a4 BF00     		lsleq	r7, r7, #2
 1800 02a6 FFB2     		uxtbeq	r7, r7
 1801 02a8 07F00C03 		and	r3, r7, #12
 1802 02ac 0C2B     		cmp	r3, #12
 1803 02ae 03D0     		beq	.L350
 1804 02b0 07F00302 		and	r2, r7, #3
 1805 02b4 032A     		cmp	r2, #3
 1806 02b6 02D1     		bne	.L351
 1807              	.L350:
 1808 02b8 44F00204 		orr	r4, r4, #2
 1809 02bc E4B2     		uxtb	r4, r4
 1810              	.L351:
 1811 02be A207     		lsls	r2, r4, #30
 1812 02c0 0BD4     		bmi	.L352
 1813 02c2 07F00307 		and	r7, r7, #3
 1814 02c6 012F     		cmp	r7, #1
 1815 02c8 04BF     		itt	eq
 1816 02ca 44F01004 		orreq	r4, r4, #16
 1817 02ce E4B2     		uxtbeq	r4, r4
 1818 02d0 042B     		cmp	r3, #4
 1819 02d2 04BF     		itt	eq
 1820 02d4 44F00804 		orreq	r4, r4, #8
 1821 02d8 E4B2     		uxtbeq	r4, r4
 1822              	.L352:
 1823 02da AB69     		ldr	r3, [r5, #24]
 1824 02dc D1E6     		b	.L434
 1825              	.L440:
 1826 02de A0F16103 		sub	r3, r0, #97
 1827 02e2 9BB2     		uxth	r3, r3
 1828 02e4 192B     		cmp	r3, #25
 1829 02e6 CED8     		bhi	.L343
 1830 02e8 2038     		subs	r0, r0, #32
 1831 02ea 47F00107 		orr	r7, r7, #1
 1832 02ee 80B2     		uxth	r0, r0
 1833 02f0 C9E7     		b	.L343
 1834              	.L303:
 1835 02f2 0620     		movs	r0, #6
 1836 02f4 03E0     		b	.L391
 1837              	.L333:
 1838 02f6 BBF10B0F 		cmp	fp, #11
 1839 02fa 88D1     		bne	.L339
 1840 02fc 7BE7     		b	.L361
 1841              	.L391:
 1842 02fe 03B0     		add	sp, sp, #12
 1843              		@ sp needed
 1844 0300 BDE8F08F 		pop	{r4, r5, r6, r7, r8, r9, r10, fp, pc}
 1845              	.L442:
 1846              		.align	2
 1847              	.L441:
 1848 0304 FFFFFFFF 		.word	.LC0-1
 1849 0308 FFFFFFFF 		.word	.LC1-1
 1851              		.section	.text.dir_remove,"ax",%progbits
 1852              		.align	1
 1853              		.thumb
 1854              		.thumb_func
 1856              	dir_remove:
 1857              		@ args = 0, pretend = 0, frame = 0
 1858              		@ frame_needed = 0, uses_anonymous_args = 0
 1859 0000 F8B5     		push	{r3, r4, r5, r6, r7, lr}
 1860 0002 018C     		ldrh	r1, [r0, #32]
 1861 0004 C588     		ldrh	r5, [r0, #6]
 1862 0006 4FF6FF73 		movw	r3, #65535
 1863 000a 9942     		cmp	r1, r3
 1864 000c 08BF     		it	eq
 1865 000e 2946     		moveq	r1, r5
 1866 0010 0446     		mov	r4, r0
 1867 0012 FFF7FEFF 		bl	dir_sdi
 1868 0016 0146     		mov	r1, r0
 1869 0018 B8B9     		cbnz	r0, .L445
 1870 001a E526     		movs	r6, #229
 1871 001c 0127     		movs	r7, #1
 1872              	.L448:
 1873 001e 2169     		ldr	r1, [r4, #16]
 1874 0020 2068     		ldr	r0, [r4]
 1875 0022 FFF7FEFF 		bl	move_window
 1876 0026 0146     		mov	r1, r0
 1877 0028 60B9     		cbnz	r0, .L446
 1878 002a 6369     		ldr	r3, [r4, #20]
 1879 002c 1E70     		strb	r6, [r3]
 1880 002e 2368     		ldr	r3, [r4]
 1881 0030 1F71     		strb	r7, [r3, #4]
 1882 0032 E388     		ldrh	r3, [r4, #6]
 1883 0034 AB42     		cmp	r3, r5
 1884 0036 08D2     		bcs	.L445
 1885 0038 2046     		mov	r0, r4
 1886 003a FFF7FEFF 		bl	dir_next
 1887 003e 0146     		mov	r1, r0
 1888 0040 0028     		cmp	r0, #0
 1889 0042 ECD0     		beq	.L448
 1890              	.L446:
 1891 0044 0429     		cmp	r1, #4
 1892 0046 08BF     		it	eq
 1893 0048 0221     		moveq	r1, #2
 1894              	.L445:
 1895 004a 0846     		mov	r0, r1
 1896 004c F8BD     		pop	{r3, r4, r5, r6, r7, pc}
 1898              		.section	.text.dir_read.constprop.8,"ax",%progbits
 1899              		.align	1
 1900              		.thumb
 1901              		.thumb_func
 1903              	dir_read.constprop.8:
 1904              		@ args = 0, pretend = 0, frame = 0
 1905              		@ frame_needed = 0, uses_anonymous_args = 0
 1906 0000 2DE9F047 		push	{r4, r5, r6, r7, r8, r9, r10, lr}
 1907 0004 FF27     		movs	r7, #255
 1908 0006 DFF8EC80 		ldr	r8, .L483
 1909 000a 0546     		mov	r5, r0
 1910 000c 3C46     		mov	r4, r7
 1911 000e 0423     		movs	r3, #4
 1912 0010 4FF6FF79 		movw	r9, #65535
 1913              	.L452:
 1914 0014 2969     		ldr	r1, [r5, #16]
 1915 0016 0029     		cmp	r1, #0
 1916 0018 5DD0     		beq	.L482
 1917 001a 2868     		ldr	r0, [r5]
 1918 001c FFF7FEFF 		bl	move_window
 1919 0020 0646     		mov	r6, r0
 1920 0022 0028     		cmp	r0, #0
 1921 0024 61D1     		bne	.L453
 1922 0026 6869     		ldr	r0, [r5, #20]
 1923 0028 0378     		ldrb	r3, [r0]	@ zero_extendqisi2
 1924 002a 002B     		cmp	r3, #0
 1925 002c 5CD0     		beq	.L469
 1926 002e C27A     		ldrb	r2, [r0, #11]	@ zero_extendqisi2
 1927 0030 E52B     		cmp	r3, #229
 1928 0032 02F03F02 		and	r2, r2, #63
 1929 0036 45D0     		beq	.L473
 1930 0038 082A     		cmp	r2, #8
 1931 003a 43D0     		beq	.L473
 1932 003c 0F2A     		cmp	r2, #15
 1933 003e 38D1     		bne	.L455
 1934 0040 5E06     		lsls	r6, r3, #25
 1935 0042 05D5     		bpl	.L456
 1936 0044 03F0BF04 		and	r4, r3, #191
 1937 0048 EB88     		ldrh	r3, [r5, #6]
 1938 004a 477B     		ldrb	r7, [r0, #13]	@ zero_extendqisi2
 1939 004c 2B84     		strh	r3, [r5, #32]	@ movhi
 1940 004e 01E0     		b	.L457
 1941              	.L456:
 1942 0050 A342     		cmp	r3, r4
 1943 0052 37D1     		bne	.L473
 1944              	.L457:
 1945 0054 437B     		ldrb	r3, [r0, #13]	@ zero_extendqisi2
 1946 0056 BB42     		cmp	r3, r7
 1947 0058 34D1     		bne	.L473
 1948 005a 0378     		ldrb	r3, [r0]	@ zero_extendqisi2
 1949 005c 0D22     		movs	r2, #13
 1950 005e 03F03F03 		and	r3, r3, #63
 1951 0062 013B     		subs	r3, r3, #1
 1952 0064 EE69     		ldr	r6, [r5, #28]
 1953 0066 5343     		muls	r3, r2, r3
 1954 0068 4FF0010E 		mov	lr, #1
 1955 006c 0022     		movs	r2, #0
 1956              	.L462:
 1957 006e 12F808C0 		ldrb	ip, [r2, r8]	@ zero_extendqisi2
 1958 0072 00EB0C01 		add	r1, r0, ip
 1959 0076 91F801A0 		ldrb	r10, [r1, #1]	@ zero_extendqisi2
 1960 007a 10F80C10 		ldrb	r1, [r0, ip]	@ zero_extendqisi2
 1961 007e 41EA0A21 		orr	r1, r1, r10, lsl #8
 1962 0082 BEF1000F 		cmp	lr, #0
 1963 0086 06D0     		beq	.L458
 1964 0088 3F2B     		cmp	r3, #63
 1965 008a 1BD8     		bhi	.L473
 1966 008c 26F81310 		strh	r1, [r6, r3, lsl #1]	@ movhi
 1967 0090 8E46     		mov	lr, r1
 1968 0092 0133     		adds	r3, r3, #1
 1969 0094 01E0     		b	.L460
 1970              	.L458:
 1971 0096 4945     		cmp	r1, r9
 1972 0098 14D1     		bne	.L473
 1973              	.L460:
 1974 009a 0132     		adds	r2, r2, #1
 1975 009c 0D2A     		cmp	r2, #13
 1976 009e E6D1     		bne	.L462
 1977 00a0 0278     		ldrb	r2, [r0]	@ zero_extendqisi2
 1978 00a2 5106     		lsls	r1, r2, #25
 1979 00a4 1DD5     		bpl	.L463
 1980 00a6 3F2B     		cmp	r3, #63
 1981 00a8 0CD8     		bhi	.L473
 1982 00aa 0022     		movs	r2, #0
 1983 00ac 26F81320 		strh	r2, [r6, r3, lsl #1]	@ movhi
 1984 00b0 17E0     		b	.L463
 1985              	.L455:
 1986 00b2 1CB9     		cbnz	r4, .L464
 1987 00b4 FFF7FEFF 		bl	sum_sfn
 1988 00b8 8742     		cmp	r7, r0
 1989 00ba 18D0     		beq	.L476
 1990              	.L464:
 1991 00bc 4FF6FF73 		movw	r3, #65535
 1992 00c0 2B84     		strh	r3, [r5, #32]	@ movhi
 1993 00c2 14E0     		b	.L476
 1994              	.L473:
 1995 00c4 FF24     		movs	r4, #255
 1996              	.L454:
 1997 00c6 2846     		mov	r0, r5
 1998 00c8 0021     		movs	r1, #0
 1999 00ca FFF7FEFF 		bl	dir_next
 2000 00ce 0646     		mov	r6, r0
 2001 00d0 58B9     		cbnz	r0, .L453
 2002 00d2 0346     		mov	r3, r0
 2003 00d4 9EE7     		b	.L452
 2004              	.L482:
 2005 00d6 1E46     		mov	r6, r3
 2006 00d8 4BB1     		cbz	r3, .L476
 2007              	.L468:
 2008 00da 0022     		movs	r2, #0
 2009 00dc 2A61     		str	r2, [r5, #16]
 2010 00de 1E46     		mov	r6, r3
 2011 00e0 05E0     		b	.L476
 2012              	.L463:
 2013 00e2 013C     		subs	r4, r4, #1
 2014 00e4 E4B2     		uxtb	r4, r4
 2015 00e6 EEE7     		b	.L454
 2016              	.L469:
 2017 00e8 0426     		movs	r6, #4
 2018              	.L453:
 2019 00ea 3346     		mov	r3, r6
 2020 00ec F5E7     		b	.L468
 2021              	.L476:
 2022 00ee 3046     		mov	r0, r6
 2023 00f0 BDE8F087 		pop	{r4, r5, r6, r7, r8, r9, r10, pc}
 2024              	.L484:
 2025              		.align	2
 2026              	.L483:
 2027 00f4 00000000 		.word	.LANCHOR3
 2029              		.section	.text.remove_chain,"ax",%progbits
 2030              		.align	1
 2031              		.thumb
 2032              		.thumb_func
 2034              	remove_chain:
 2035              		@ args = 0, pretend = 0, frame = 0
 2036              		@ frame_needed = 0, uses_anonymous_args = 0
 2037 0000 0129     		cmp	r1, #1
 2038 0002 F8B5     		push	{r3, r4, r5, r6, r7, lr}
 2039 0004 0446     		mov	r4, r0
 2040 0006 0D46     		mov	r5, r1
 2041 0008 22D9     		bls	.L494
 2042 000a C369     		ldr	r3, [r0, #28]
 2043 000c 9942     		cmp	r1, r3
 2044 000e 1FD2     		bcs	.L494
 2045 0010 0127     		movs	r7, #1
 2046              	.L487:
 2047 0012 E369     		ldr	r3, [r4, #28]
 2048 0014 9D42     		cmp	r5, r3
 2049 0016 05D2     		bcs	.L492
 2050 0018 2046     		mov	r0, r4
 2051 001a 2946     		mov	r1, r5
 2052 001c FFF7FEFF 		bl	get_fat
 2053 0020 0646     		mov	r6, r0
 2054 0022 08B9     		cbnz	r0, .L488
 2055              	.L492:
 2056 0024 0020     		movs	r0, #0
 2057 0026 F8BD     		pop	{r3, r4, r5, r6, r7, pc}
 2058              	.L488:
 2059 0028 0128     		cmp	r0, #1
 2060 002a 11D0     		beq	.L494
 2061 002c 411C     		adds	r1, r0, #1
 2062 002e 0DD0     		beq	.L496
 2063 0030 2046     		mov	r0, r4
 2064 0032 2946     		mov	r1, r5
 2065 0034 0022     		movs	r2, #0
 2066 0036 FFF7FEFF 		bl	put_fat
 2067 003a 50B9     		cbnz	r0, .L486
 2068 003c 2369     		ldr	r3, [r4, #16]
 2069 003e 5A1C     		adds	r2, r3, #1
 2070 0040 02D0     		beq	.L490
 2071 0042 0133     		adds	r3, r3, #1
 2072 0044 2361     		str	r3, [r4, #16]
 2073 0046 6771     		strb	r7, [r4, #5]
 2074              	.L490:
 2075 0048 3546     		mov	r5, r6
 2076 004a E2E7     		b	.L487
 2077              	.L496:
 2078 004c 0120     		movs	r0, #1
 2079 004e F8BD     		pop	{r3, r4, r5, r6, r7, pc}
 2080              	.L494:
 2081 0050 0220     		movs	r0, #2
 2082              	.L486:
 2083 0052 F8BD     		pop	{r3, r4, r5, r6, r7, pc}
 2085              		.section	.text.gen_numname,"ax",%progbits
 2086              		.align	1
 2087              		.global	gen_numname
 2088              		.thumb
 2089              		.thumb_func
 2091              	gen_numname:
 2092              		@ args = 0, pretend = 0, frame = 8
 2093              		@ frame_needed = 0, uses_anonymous_args = 0
 2094 0000 73B5     		push	{r0, r1, r4, r5, r6, lr}
 2095 0002 1C46     		mov	r4, r3
 2096 0004 1646     		mov	r6, r2
 2097 0006 0B22     		movs	r2, #11
 2098 0008 0546     		mov	r5, r0
 2099 000a FFF7FEFF 		bl	mem_cpy
 2100 000e 052C     		cmp	r4, #5
 2101 0010 0BD9     		bls	.L501
 2102 0012 B21E     		subs	r2, r6, #2
 2103              	.L502:
 2104 0014 E303     		lsls	r3, r4, #15
 2105 0016 43EA5404 		orr	r4, r3, r4, lsr #1
 2106 001a 32F8023F 		ldrh	r3, [r2, #2]!
 2107 001e A4B2     		uxth	r4, r4
 2108 0020 1C44     		add	r4, r4, r3
 2109 0022 5388     		ldrh	r3, [r2, #2]
 2110 0024 A4B2     		uxth	r4, r4
 2111 0026 002B     		cmp	r3, #0
 2112 0028 F4D1     		bne	.L502
 2113              	.L501:
 2114 002a 0722     		movs	r2, #7
 2115              	.L505:
 2116 002c 04F00F03 		and	r3, r4, #15
 2117 0030 03F13001 		add	r1, r3, #48
 2118 0034 3929     		cmp	r1, #57
 2119 0036 88BF     		it	hi
 2120 0038 03F13701 		addhi	r1, r3, #55
 2121 003c 2409     		lsrs	r4, r4, #4
 2122 003e 02F1FF33 		add	r3, r2, #-1
 2123 0042 0DF80210 		strb	r1, [sp, r2]
 2124 0046 01D0     		beq	.L504
 2125 0048 1A46     		mov	r2, r3
 2126 004a EFE7     		b	.L505
 2127              	.L504:
 2128 004c 02A9     		add	r1, sp, #8
 2129 004e 7E20     		movs	r0, #126
 2130 0050 1944     		add	r1, r1, r3
 2131 0052 01F8080C 		strb	r0, [r1, #-8]
 2132 0056 023A     		subs	r2, r2, #2
 2133              	.L506:
 2134 0058 9C42     		cmp	r4, r3
 2135 005a 0BD2     		bcs	.L509
 2136 005c 295D     		ldrb	r1, [r5, r4]	@ zero_extendqisi2
 2137 005e 2029     		cmp	r1, #32
 2138 0060 08D0     		beq	.L509
 2139 0062 7F31     		adds	r1, r1, #127
 2140 0064 C9B2     		uxtb	r1, r1
 2141 0066 7D29     		cmp	r1, #125
 2142 0068 02D8     		bhi	.L507
 2143 006a 9442     		cmp	r4, r2
 2144 006c 02D0     		beq	.L509
 2145 006e 0134     		adds	r4, r4, #1
 2146              	.L507:
 2147 0070 0134     		adds	r4, r4, #1
 2148 0072 F1E7     		b	.L506
 2149              	.L509:
 2150 0074 072B     		cmp	r3, #7
 2151 0076 05D8     		bhi	.L514
 2152 0078 02AA     		add	r2, sp, #8
 2153 007a 1A44     		add	r2, r2, r3
 2154 007c 12F8082C 		ldrb	r2, [r2, #-8]	@ zero_extendqisi2
 2155 0080 0133     		adds	r3, r3, #1
 2156 0082 00E0     		b	.L512
 2157              	.L514:
 2158 0084 2022     		movs	r2, #32
 2159              	.L512:
 2160 0086 2A55     		strb	r2, [r5, r4]
 2161 0088 0134     		adds	r4, r4, #1
 2162 008a 072C     		cmp	r4, #7
 2163 008c F2D9     		bls	.L509
 2164 008e 02B0     		add	sp, sp, #8
 2165              		@ sp needed
 2166 0090 70BD     		pop	{r4, r5, r6, pc}
 2168              		.section	.text.dir_register,"ax",%progbits
 2169              		.align	1
 2170              		.thumb
 2171              		.thumb_func
 2173              	dir_register:
 2174              		@ args = 0, pretend = 0, frame = 16
 2175              		@ frame_needed = 0, uses_anonymous_args = 0
 2176 0000 2DE9F04F 		push	{r4, r5, r6, r7, r8, r9, r10, fp, lr}
 2177 0004 8569     		ldr	r5, [r0, #24]
 2178 0006 85B0     		sub	sp, sp, #20
 2179 0008 C769     		ldr	r7, [r0, #28]
 2180 000a 2946     		mov	r1, r5
 2181 000c 0C22     		movs	r2, #12
 2182 000e 0446     		mov	r4, r0
 2183 0010 01A8     		add	r0, sp, #4
 2184 0012 FFF7FEFF 		bl	mem_cpy
 2185 0016 9DF80F20 		ldrb	r2, [sp, #15]	@ zero_extendqisi2
 2186 001a 02F02001 		and	r1, r2, #32
 2187 001e 01F0FF03 		and	r3, r1, #255
 2188 0022 0029     		cmp	r1, #0
 2189 0024 53D1     		bne	.L544
 2190 0026 D607     		lsls	r6, r2, #31
 2191 0028 1ED5     		bpl	.L521
 2192 002a EB72     		strb	r3, [r5, #11]
 2193 002c 0126     		movs	r6, #1
 2194 002e E361     		str	r3, [r4, #28]
 2195              	.L523:
 2196 0030 2846     		mov	r0, r5
 2197 0032 01A9     		add	r1, sp, #4
 2198 0034 3A46     		mov	r2, r7
 2199 0036 3346     		mov	r3, r6
 2200 0038 FFF7FEFF 		bl	gen_numname
 2201 003c 2046     		mov	r0, r4
 2202 003e 0021     		movs	r1, #0
 2203 0040 FFF7FEFF 		bl	dir_sdi
 2204 0044 48B9     		cbnz	r0, .L522
 2205 0046 2046     		mov	r0, r4
 2206 0048 FFF7FEFF 		bl	dir_find.part.6
 2207 004c 28B9     		cbnz	r0, .L522
 2208 004e 0136     		adds	r6, r6, #1
 2209 0050 B6B2     		uxth	r6, r6
 2210 0052 642E     		cmp	r6, #100
 2211 0054 ECD1     		bne	.L523
 2212 0056 0720     		movs	r0, #7
 2213 0058 ABE0     		b	.L560
 2214              	.L522:
 2215 005a 0428     		cmp	r0, #4
 2216 005c 40F0A980 		bne	.L560
 2217 0060 9DF80F30 		ldrb	r3, [sp, #15]	@ zero_extendqisi2
 2218 0064 EB72     		strb	r3, [r5, #11]
 2219 0066 E761     		str	r7, [r4, #28]
 2220              	.L521:
 2221 0068 9DF80F30 		ldrb	r3, [sp, #15]	@ zero_extendqisi2
 2222 006c 9807     		lsls	r0, r3, #30
 2223 006e 0DD5     		bpl	.L546
 2224 0070 0023     		movs	r3, #0
 2225              	.L525:
 2226 0072 37F81320 		ldrh	r2, [r7, r3, lsl #1]
 2227 0076 12B1     		cbz	r2, .L563
 2228 0078 0133     		adds	r3, r3, #1
 2229 007a 9BB2     		uxth	r3, r3
 2230 007c F9E7     		b	.L525
 2231              	.L563:
 2232 007e 03F11906 		add	r6, r3, #25
 2233 0082 0D22     		movs	r2, #13
 2234 0084 96FBF2F6 		sdiv	r6, r6, r2
 2235 0088 B6B2     		uxth	r6, r6
 2236 008a 00E0     		b	.L524
 2237              	.L546:
 2238 008c 0126     		movs	r6, #1
 2239              	.L524:
 2240 008e 2046     		mov	r0, r4
 2241 0090 0021     		movs	r1, #0
 2242 0092 FFF7FEFF 		bl	dir_sdi
 2243 0096 0028     		cmp	r0, #0
 2244 0098 40F08B80 		bne	.L560
 2245 009c 0546     		mov	r5, r0
 2246              	.L531:
 2247 009e 2068     		ldr	r0, [r4]
 2248 00a0 2169     		ldr	r1, [r4, #16]
 2249 00a2 FFF7FEFF 		bl	move_window
 2250 00a6 0028     		cmp	r0, #0
 2251 00a8 40F08380 		bne	.L560
 2252 00ac 6369     		ldr	r3, [r4, #20]
 2253 00ae 1B78     		ldrb	r3, [r3]	@ zero_extendqisi2
 2254 00b0 E52B     		cmp	r3, #229
 2255 00b2 00D0     		beq	.L528
 2256 00b4 1BB9     		cbnz	r3, .L547
 2257              	.L528:
 2258 00b6 0135     		adds	r5, r5, #1
 2259 00b8 B542     		cmp	r5, r6
 2260 00ba 01D1     		bne	.L529
 2261 00bc 09E0     		b	.L564
 2262              	.L547:
 2263 00be 0546     		mov	r5, r0
 2264              	.L529:
 2265 00c0 2046     		mov	r0, r4
 2266 00c2 0121     		movs	r1, #1
 2267 00c4 FFF7FEFF 		bl	dir_next
 2268 00c8 0028     		cmp	r0, #0
 2269 00ca E8D0     		beq	.L531
 2270 00cc 71E0     		b	.L560
 2271              	.L544:
 2272 00ce 0620     		movs	r0, #6
 2273 00d0 6FE0     		b	.L560
 2274              	.L564:
 2275 00d2 013D     		subs	r5, r5, #1
 2276 00d4 ADB2     		uxth	r5, r5
 2277 00d6 002D     		cmp	r5, #0
 2278 00d8 51D0     		beq	.L539
 2279 00da E188     		ldrh	r1, [r4, #6]
 2280 00dc 2046     		mov	r0, r4
 2281 00de 491B     		subs	r1, r1, r5
 2282 00e0 89B2     		uxth	r1, r1
 2283 00e2 FFF7FEFF 		bl	dir_sdi
 2284 00e6 0028     		cmp	r0, #0
 2285 00e8 63D1     		bne	.L560
 2286 00ea A069     		ldr	r0, [r4, #24]
 2287 00ec FFF7FEFF 		bl	sum_sfn
 2288 00f0 4FF6FF79 		movw	r9, #65535
 2289 00f4 304F     		ldr	r7, .L565
 2290 00f6 0646     		mov	r6, r0
 2291 00f8 C846     		mov	r8, r9
 2292              	.L540:
 2293 00fa 2068     		ldr	r0, [r4]
 2294 00fc 2169     		ldr	r1, [r4, #16]
 2295 00fe FFF7FEFF 		bl	move_window
 2296 0102 0346     		mov	r3, r0
 2297 0104 002B     		cmp	r3, #0
 2298 0106 54D1     		bne	.L560
 2299 0108 6269     		ldr	r2, [r4, #20]
 2300 010a 0F20     		movs	r0, #15
 2301 010c E9B2     		uxtb	r1, r5
 2302 010e D4F81CC0 		ldr	ip, [r4, #28]
 2303 0112 4FF00D0E 		mov	lr, #13
 2304 0116 D072     		strb	r0, [r2, #11]
 2305 0118 481E     		subs	r0, r1, #1
 2306 011a 0EFB00F0 		mul	r0, lr, r0
 2307 011e 5673     		strb	r6, [r2, #13]
 2308 0120 1373     		strb	r3, [r2, #12]
 2309 0122 9376     		strb	r3, [r2, #26]
 2310 0124 D376     		strb	r3, [r2, #27]
 2311 0126 9E46     		mov	lr, r3
 2312              	.L536:
 2313 0128 4B45     		cmp	r3, r9
 2314 012a 18BF     		it	ne
 2315 012c 3CF81030 		ldrhne	r3, [ip, r0, lsl #1]
 2316 0130 1EF807A0 		ldrb	r10, [lr, r7]	@ zero_extendqisi2
 2317 0134 0EF1010E 		add	lr, lr, #1
 2318 0138 02F80A30 		strb	r3, [r2, r10]
 2319 013c 18BF     		it	ne
 2320 013e 0130     		addne	r0, r0, #1
 2321 0140 4FEA132B 		lsr	fp, r3, #8
 2322 0144 9244     		add	r10, r10, r2
 2323 0146 002B     		cmp	r3, #0
 2324 0148 08BF     		it	eq
 2325 014a 4B46     		moveq	r3, r9
 2326 014c BEF10D0F 		cmp	lr, #13
 2327 0150 8AF801B0 		strb	fp, [r10, #1]
 2328 0154 E8D1     		bne	.L536
 2329 0156 4345     		cmp	r3, r8
 2330 0158 02D0     		beq	.L537
 2331 015a 3CF81030 		ldrh	r3, [ip, r0, lsl #1]
 2332 015e 0BB9     		cbnz	r3, .L538
 2333              	.L537:
 2334 0160 41F04001 		orr	r1, r1, #64
 2335              	.L538:
 2336 0164 1170     		strb	r1, [r2]
 2337 0166 2368     		ldr	r3, [r4]
 2338 0168 0122     		movs	r2, #1
 2339 016a 1A71     		strb	r2, [r3, #4]
 2340 016c 2046     		mov	r0, r4
 2341 016e 0021     		movs	r1, #0
 2342 0170 FFF7FEFF 		bl	dir_next
 2343 0174 E8B9     		cbnz	r0, .L560
 2344 0176 013D     		subs	r5, r5, #1
 2345 0178 ADB2     		uxth	r5, r5
 2346 017a 002D     		cmp	r5, #0
 2347 017c BDD1     		bne	.L540
 2348              	.L539:
 2349 017e 2068     		ldr	r0, [r4]
 2350 0180 2169     		ldr	r1, [r4, #16]
 2351 0182 FFF7FEFF 		bl	move_window
 2352 0186 0546     		mov	r5, r0
 2353 0188 90B9     		cbnz	r0, .L562
 2354 018a 6069     		ldr	r0, [r4, #20]
 2355 018c 2946     		mov	r1, r5
 2356 018e 2022     		movs	r2, #32
 2357 0190 FFF7FEFF 		bl	mem_set
 2358 0194 0B22     		movs	r2, #11
 2359 0196 6069     		ldr	r0, [r4, #20]
 2360 0198 A169     		ldr	r1, [r4, #24]
 2361 019a FFF7FEFF 		bl	mem_cpy
 2362 019e A269     		ldr	r2, [r4, #24]
 2363 01a0 6369     		ldr	r3, [r4, #20]
 2364 01a2 D27A     		ldrb	r2, [r2, #11]	@ zero_extendqisi2
 2365 01a4 02F01802 		and	r2, r2, #24
 2366 01a8 1A73     		strb	r2, [r3, #12]
 2367 01aa 2368     		ldr	r3, [r4]
 2368 01ac 0122     		movs	r2, #1
 2369 01ae 1A71     		strb	r2, [r3, #4]
 2370              	.L562:
 2371 01b0 2846     		mov	r0, r5
 2372              	.L560:
 2373 01b2 05B0     		add	sp, sp, #20
 2374              		@ sp needed
 2375 01b4 BDE8F08F 		pop	{r4, r5, r6, r7, r8, r9, r10, fp, pc}
 2376              	.L566:
 2377              		.align	2
 2378              	.L565:
 2379 01b8 00000000 		.word	.LANCHOR3
 2381              		.section	.text.f_mount,"ax",%progbits
 2382              		.align	1
 2383              		.global	f_mount
 2384              		.thumb
 2385              		.thumb_func
 2387              	f_mount:
 2388              		@ args = 0, pretend = 0, frame = 0
 2389              		@ frame_needed = 0, uses_anonymous_args = 0
 2390              		@ link register save eliminated.
 2391 0000 48B9     		cbnz	r0, .L571
 2392 0002 064A     		ldr	r2, .L578
 2393 0004 1368     		ldr	r3, [r2]
 2394 0006 03B1     		cbz	r3, .L569
 2395 0008 1870     		strb	r0, [r3]
 2396              	.L569:
 2397 000a 09B1     		cbz	r1, .L570
 2398 000c 0023     		movs	r3, #0
 2399 000e 0B70     		strb	r3, [r1]
 2400              	.L570:
 2401 0010 1160     		str	r1, [r2]
 2402 0012 0020     		movs	r0, #0
 2403 0014 7047     		bx	lr
 2404              	.L571:
 2405 0016 0B20     		movs	r0, #11
 2406 0018 7047     		bx	lr
 2407              	.L579:
 2408 001a 00BF     		.align	2
 2409              	.L578:
 2410 001c 00000000 		.word	.LANCHOR1
 2412              		.section	.text.f_open,"ax",%progbits
 2413              		.align	1
 2414              		.global	f_open
 2415              		.thumb
 2416              		.thumb_func
 2418              	f_open:
 2419              		@ args = 0, pretend = 0, frame = 56
 2420              		@ frame_needed = 0, uses_anonymous_args = 0
 2421 0000 2DE9F041 		push	{r4, r5, r6, r7, r8, lr}
 2422 0004 8EB0     		sub	sp, sp, #56
 2423 0006 0191     		str	r1, [sp, #4]
 2424 0008 1646     		mov	r6, r2
 2425 000a 0546     		mov	r5, r0
 2426 000c 0028     		cmp	r0, #0
 2427 000e 00F08A80 		beq	.L593
 2428 0012 0023     		movs	r3, #0
 2429 0014 0360     		str	r3, [r0]
 2430 0016 05A9     		add	r1, sp, #20
 2431 0018 01A8     		add	r0, sp, #4
 2432 001a 02F01E02 		and	r2, r2, #30
 2433 001e FFF7FEFF 		bl	chk_mounted
 2434 0022 0028     		cmp	r0, #0
 2435 0024 40F08680 		bne	.L618
 2436 0028 02AB     		add	r3, sp, #8
 2437 002a 0B93     		str	r3, [sp, #44]
 2438 002c 434B     		ldr	r3, .L619
 2439 002e 05A8     		add	r0, sp, #20
 2440 0030 0199     		ldr	r1, [sp, #4]
 2441 0032 0C93     		str	r3, [sp, #48]
 2442 0034 FFF7FEFF 		bl	follow_path
 2443 0038 0A9C     		ldr	r4, [sp, #40]
 2444 003a 18B9     		cbnz	r0, .L582
 2445 003c 002C     		cmp	r4, #0
 2446 003e 0CBF     		ite	eq
 2447 0040 0620     		moveq	r0, #6
 2448 0042 0020     		movne	r0, #0
 2449              	.L582:
 2450 0044 16F01C0F 		tst	r6, #28
 2451 0048 06F01F07 		and	r7, r6, #31
 2452 004c 42D0     		beq	.L583
 2453 004e 48B1     		cbz	r0, .L584
 2454 0050 0428     		cmp	r0, #4
 2455 0052 02D1     		bne	.L585
 2456 0054 05A8     		add	r0, sp, #20
 2457 0056 FFF7FEFF 		bl	dir_register
 2458              	.L585:
 2459 005a 47F00807 		orr	r7, r7, #8
 2460 005e 0A9C     		ldr	r4, [sp, #40]
 2461 0060 30B1     		cbz	r0, .L586
 2462 0062 67E0     		b	.L618
 2463              	.L584:
 2464 0064 E37A     		ldrb	r3, [r4, #11]	@ zero_extendqisi2
 2465 0066 13F0110F 		tst	r3, #17
 2466 006a 62D1     		bne	.L599
 2467 006c 7307     		lsls	r3, r6, #29
 2468 006e 5CD4     		bmi	.L597
 2469              	.L586:
 2470 0070 3E07     		lsls	r6, r7, #28
 2471 0072 38D5     		bpl	.L590
 2472 0074 FFF7FEFF 		bl	get_fattime
 2473 0078 C0F30723 		ubfx	r3, r0, #8, #8
 2474 007c 0026     		movs	r6, #0
 2475 007e A073     		strb	r0, [r4, #14]
 2476 0080 E373     		strb	r3, [r4, #15]
 2477 0082 DDF814C0 		ldr	ip, [sp, #20]
 2478 0086 030C     		lsrs	r3, r0, #16
 2479 0088 000E     		lsrs	r0, r0, #24
 2480 008a 2374     		strb	r3, [r4, #16]
 2481 008c E672     		strb	r6, [r4, #11]
 2482 008e 2677     		strb	r6, [r4, #28]
 2483 0090 6677     		strb	r6, [r4, #29]
 2484 0092 A677     		strb	r6, [r4, #30]
 2485 0094 E677     		strb	r6, [r4, #31]
 2486 0096 6074     		strb	r0, [r4, #17]
 2487 0098 9CF80000 		ldrb	r0, [ip]	@ zero_extendqisi2
 2488 009c 2146     		mov	r1, r4
 2489 009e FFF7FEFF 		bl	ld_clust.isra.0
 2490 00a2 0123     		movs	r3, #1
 2491 00a4 A676     		strb	r6, [r4, #26]
 2492 00a6 E676     		strb	r6, [r4, #27]
 2493 00a8 2675     		strb	r6, [r4, #20]
 2494 00aa 6675     		strb	r6, [r4, #21]
 2495 00ac 8CF80430 		strb	r3, [ip, #4]
 2496 00b0 0646     		mov	r6, r0
 2497 00b2 C0B1     		cbz	r0, .L590
 2498 00b4 6046     		mov	r0, ip
 2499 00b6 3146     		mov	r1, r6
 2500 00b8 DCF83480 		ldr	r8, [ip, #52]
 2501 00bc FFF7FEFF 		bl	remove_chain
 2502 00c0 0028     		cmp	r0, #0
 2503 00c2 37D1     		bne	.L618
 2504 00c4 0598     		ldr	r0, [sp, #20]
 2505 00c6 013E     		subs	r6, r6, #1
 2506 00c8 C660     		str	r6, [r0, #12]
 2507 00ca 4146     		mov	r1, r8
 2508 00cc FFF7FEFF 		bl	move_window
 2509 00d0 48B1     		cbz	r0, .L590
 2510 00d2 2FE0     		b	.L618
 2511              	.L583:
 2512 00d4 0028     		cmp	r0, #0
 2513 00d6 2DD1     		bne	.L618
 2514 00d8 E37A     		ldrb	r3, [r4, #11]	@ zero_extendqisi2
 2515 00da D806     		lsls	r0, r3, #27
 2516 00dc 27D4     		bmi	.L598
 2517 00de B107     		lsls	r1, r6, #30
 2518 00e0 01D5     		bpl	.L590
 2519 00e2 DA07     		lsls	r2, r3, #31
 2520 00e4 25D4     		bmi	.L599
 2521              	.L590:
 2522 00e6 059E     		ldr	r6, [sp, #20]
 2523 00e8 3B07     		lsls	r3, r7, #28
 2524 00ea 736B     		ldr	r3, [r6, #52]
 2525 00ec 48BF     		it	mi
 2526 00ee 47F02007 		orrmi	r7, r7, #32
 2527 00f2 EB61     		str	r3, [r5, #28]
 2528 00f4 2C62     		str	r4, [r5, #32]
 2529 00f6 AF71     		strb	r7, [r5, #6]
 2530 00f8 3078     		ldrb	r0, [r6]	@ zero_extendqisi2
 2531 00fa 2146     		mov	r1, r4
 2532 00fc FFF7FEFF 		bl	ld_clust.isra.0
 2533 0100 2861     		str	r0, [r5, #16]
 2534 0102 A37F     		ldrb	r3, [r4, #30]	@ zero_extendqisi2
 2535 0104 E27F     		ldrb	r2, [r4, #31]	@ zero_extendqisi2
 2536 0106 1B04     		lsls	r3, r3, #16
 2537 0108 43EA0263 		orr	r3, r3, r2, lsl #24
 2538 010c 227F     		ldrb	r2, [r4, #28]	@ zero_extendqisi2
 2539 010e 0020     		movs	r0, #0
 2540 0110 1343     		orrs	r3, r3, r2
 2541 0112 627F     		ldrb	r2, [r4, #29]	@ zero_extendqisi2
 2542 0114 A860     		str	r0, [r5, #8]
 2543 0116 43EA0223 		orr	r3, r3, r2, lsl #8
 2544 011a EB60     		str	r3, [r5, #12]
 2545 011c F388     		ldrh	r3, [r6, #6]
 2546 011e A861     		str	r0, [r5, #24]
 2547 0120 2E60     		str	r6, [r5]
 2548 0122 AB80     		strh	r3, [r5, #4]	@ movhi
 2549 0124 06E0     		b	.L618
 2550              	.L593:
 2551 0126 0920     		movs	r0, #9
 2552 0128 04E0     		b	.L618
 2553              	.L597:
 2554 012a 0820     		movs	r0, #8
 2555 012c 02E0     		b	.L618
 2556              	.L598:
 2557 012e 0420     		movs	r0, #4
 2558 0130 00E0     		b	.L618
 2559              	.L599:
 2560 0132 0720     		movs	r0, #7
 2561              	.L618:
 2562 0134 0EB0     		add	sp, sp, #56
 2563              		@ sp needed
 2564 0136 BDE8F081 		pop	{r4, r5, r6, r7, r8, pc}
 2565              	.L620:
 2566 013a 00BF     		.align	2
 2567              	.L619:
 2568 013c 00000000 		.word	.LANCHOR4
 2570              		.section	.text.f_read,"ax",%progbits
 2571              		.align	1
 2572              		.global	f_read
 2573              		.thumb
 2574              		.thumb_func
 2576              	f_read:
 2577              		@ args = 0, pretend = 0, frame = 0
 2578              		@ frame_needed = 0, uses_anonymous_args = 0
 2579 0000 2DE9F047 		push	{r4, r5, r6, r7, r8, r9, r10, lr}
 2580 0004 9846     		mov	r8, r3
 2581 0006 0023     		movs	r3, #0
 2582 0008 C8F80030 		str	r3, [r8]
 2583 000c 0446     		mov	r4, r0
 2584 000e 0F46     		mov	r7, r1
 2585 0010 1646     		mov	r6, r2
 2586 0012 FFF7FEFF 		bl	validate
 2587 0016 0028     		cmp	r0, #0
 2588 0018 40F08D80 		bne	.L622
 2589 001c A379     		ldrb	r3, [r4, #6]	@ zero_extendqisi2
 2590 001e 1806     		lsls	r0, r3, #24
 2591 0020 00F18580 		bmi	.L639
 2592 0024 D907     		lsls	r1, r3, #31
 2593 0026 40F18580 		bpl	.L640
 2594 002a E168     		ldr	r1, [r4, #12]
 2595 002c A368     		ldr	r3, [r4, #8]
 2596 002e CD1A     		subs	r5, r1, r3
 2597 0030 AE42     		cmp	r6, r5
 2598 0032 38BF     		it	cc
 2599 0034 3546     		movcc	r5, r6
 2600              	.L623:
 2601 0036 002D     		cmp	r5, #0
 2602 0038 76D0     		beq	.L646
 2603 003a A368     		ldr	r3, [r4, #8]
 2604 003c C3F30802 		ubfx	r2, r3, #0, #9
 2605 0040 002A     		cmp	r2, #0
 2606 0042 47D1     		bne	.L624
 2607 0044 2068     		ldr	r0, [r4]
 2608 0046 90F802A0 		ldrb	r10, [r0, #2]	@ zero_extendqisi2
 2609 004a 0AF1FF3A 		add	r10, r10, #-1
 2610 004e 0AEA532A 		and	r10, r10, r3, lsr #9
 2611 0052 1AF0FF0A 		ands	r10, r10, #255
 2612 0056 0AD1     		bne	.L625
 2613 0058 0BB9     		cbnz	r3, .L626
 2614 005a 2069     		ldr	r0, [r4, #16]
 2615 005c 02E0     		b	.L627
 2616              	.L626:
 2617 005e 6169     		ldr	r1, [r4, #20]
 2618 0060 FFF7FEFF 		bl	get_fat
 2619              	.L627:
 2620 0064 0128     		cmp	r0, #1
 2621 0066 09D9     		bls	.L644
 2622 0068 421C     		adds	r2, r0, #1
 2623 006a 40D0     		beq	.L645
 2624 006c 6061     		str	r0, [r4, #20]
 2625              	.L625:
 2626 006e D4F800C0 		ldr	ip, [r4]
 2627 0072 6169     		ldr	r1, [r4, #20]
 2628 0074 6046     		mov	r0, ip
 2629 0076 FFF7FEFF 		bl	clust2sect
 2630 007a 20B9     		cbnz	r0, .L630
 2631              	.L644:
 2632 007c A379     		ldrb	r3, [r4, #6]	@ zero_extendqisi2
 2633 007e 63F07F03 		orn	r3, r3, #127
 2634 0082 A371     		strb	r3, [r4, #6]
 2635 0084 53E0     		b	.L639
 2636              	.L630:
 2637 0086 6E0A     		lsrs	r6, r5, #9
 2638 0088 00EB0A09 		add	r9, r0, r10
 2639 008c 20D0     		beq	.L631
 2640 008e 9CF80230 		ldrb	r3, [ip, #2]	@ zero_extendqisi2
 2641 0092 06EB0A02 		add	r2, r6, r10
 2642 0096 9A42     		cmp	r2, r3
 2643 0098 88BF     		it	hi
 2644 009a CAEB0306 		rsbhi	r6, r10, r3
 2645 009e 9CF80100 		ldrb	r0, [ip, #1]	@ zero_extendqisi2
 2646 00a2 3946     		mov	r1, r7
 2647 00a4 4A46     		mov	r2, r9
 2648 00a6 F3B2     		uxtb	r3, r6
 2649 00a8 FFF7FEFF 		bl	disk_read
 2650 00ac F8B9     		cbnz	r0, .L645
 2651 00ae 2168     		ldr	r1, [r4]
 2652 00b0 0B79     		ldrb	r3, [r1, #4]	@ zero_extendqisi2
 2653 00b2 5BB1     		cbz	r3, .L634
 2654 00b4 486B     		ldr	r0, [r1, #52]
 2655 00b6 C9EB0000 		rsb	r0, r9, r0
 2656 00ba B042     		cmp	r0, r6
 2657 00bc 06D2     		bcs	.L634
 2658 00be 07EB4020 		add	r0, r7, r0, lsl #9
 2659 00c2 3831     		adds	r1, r1, #56
 2660 00c4 4FF40072 		mov	r2, #512
 2661 00c8 FFF7FEFF 		bl	mem_cpy
 2662              	.L634:
 2663 00cc 7602     		lsls	r6, r6, #9
 2664 00ce 20E0     		b	.L635
 2665              	.L631:
 2666 00d0 C4F81890 		str	r9, [r4, #24]
 2667              	.L624:
 2668 00d4 A668     		ldr	r6, [r4, #8]
 2669 00d6 2068     		ldr	r0, [r4]
 2670 00d8 C6F30806 		ubfx	r6, r6, #0, #9
 2671 00dc C6F50076 		rsb	r6, r6, #512
 2672 00e0 A169     		ldr	r1, [r4, #24]
 2673 00e2 B542     		cmp	r5, r6
 2674 00e4 38BF     		it	cc
 2675 00e6 2E46     		movcc	r6, r5
 2676 00e8 FFF7FEFF 		bl	move_window
 2677 00ec 30B1     		cbz	r0, .L636
 2678              	.L645:
 2679 00ee A379     		ldrb	r3, [r4, #6]	@ zero_extendqisi2
 2680 00f0 0120     		movs	r0, #1
 2681 00f2 63F07F03 		orn	r3, r3, #127
 2682 00f6 A371     		strb	r3, [r4, #6]
 2683 00f8 BDE8F087 		pop	{r4, r5, r6, r7, r8, r9, r10, pc}
 2684              	.L636:
 2685 00fc A368     		ldr	r3, [r4, #8]
 2686 00fe 3846     		mov	r0, r7
 2687 0100 C3F30803 		ubfx	r3, r3, #0, #9
 2688 0104 03F13801 		add	r1, r3, #56
 2689 0108 2368     		ldr	r3, [r4]
 2690 010a 3246     		mov	r2, r6
 2691 010c 1944     		add	r1, r1, r3
 2692 010e FFF7FEFF 		bl	mem_cpy
 2693              	.L635:
 2694 0112 A368     		ldr	r3, [r4, #8]
 2695 0114 3744     		add	r7, r7, r6
 2696 0116 3344     		add	r3, r3, r6
 2697 0118 A360     		str	r3, [r4, #8]
 2698 011a D8F80030 		ldr	r3, [r8]
 2699 011e AD1B     		subs	r5, r5, r6
 2700 0120 3344     		add	r3, r3, r6
 2701 0122 C8F80030 		str	r3, [r8]
 2702 0126 86E7     		b	.L623
 2703              	.L646:
 2704 0128 2846     		mov	r0, r5
 2705 012a BDE8F087 		pop	{r4, r5, r6, r7, r8, r9, r10, pc}
 2706              	.L639:
 2707 012e 0220     		movs	r0, #2
 2708 0130 BDE8F087 		pop	{r4, r5, r6, r7, r8, r9, r10, pc}
 2709              	.L640:
 2710 0134 0720     		movs	r0, #7
 2711              	.L622:
 2712 0136 BDE8F087 		pop	{r4, r5, r6, r7, r8, r9, r10, pc}
 2714              		.section	.text.f_write,"ax",%progbits
 2715              		.align	1
 2716              		.global	f_write
 2717              		.thumb
 2718              		.thumb_func
 2720              	f_write:
 2721              		@ args = 0, pretend = 0, frame = 0
 2722              		@ frame_needed = 0, uses_anonymous_args = 0
 2723 0000 2DE9F84F 		push	{r3, r4, r5, r6, r7, r8, r9, r10, fp, lr}
 2724 0004 9846     		mov	r8, r3
 2725 0006 0023     		movs	r3, #0
 2726 0008 C8F80030 		str	r3, [r8]
 2727 000c 0446     		mov	r4, r0
 2728 000e 0F46     		mov	r7, r1
 2729 0010 1546     		mov	r5, r2
 2730 0012 FFF7FEFF 		bl	validate
 2731 0016 0028     		cmp	r0, #0
 2732 0018 40F0B680 		bne	.L648
 2733 001c A379     		ldrb	r3, [r4, #6]	@ zero_extendqisi2
 2734 001e 1A06     		lsls	r2, r3, #24
 2735 0020 00F1AE80 		bmi	.L673
 2736 0024 9B07     		lsls	r3, r3, #30
 2737 0026 40F1AE80 		bpl	.L674
 2738 002a E368     		ldr	r3, [r4, #12]
 2739 002c 4FF00109 		mov	r9, #1
 2740 0030 DD42     		cmn	r5, r3
 2741 0032 28BF     		it	cs
 2742 0034 0025     		movcs	r5, #0
 2743              	.L650:
 2744 0036 DDB1     		cbz	r5, .L671
 2745 0038 A368     		ldr	r3, [r4, #8]
 2746 003a C3F30802 		ubfx	r2, r3, #0, #9
 2747 003e 002A     		cmp	r2, #0
 2748 0040 6AD1     		bne	.L651
 2749 0042 2068     		ldr	r0, [r4]
 2750 0044 90F802A0 		ldrb	r10, [r0, #2]	@ zero_extendqisi2
 2751 0048 0AF1FF3A 		add	r10, r10, #-1
 2752 004c 0AEA532A 		and	r10, r10, r3, lsr #9
 2753 0050 1AF0FF0A 		ands	r10, r10, #255
 2754 0054 17D1     		bne	.L652
 2755 0056 33B9     		cbnz	r3, .L653
 2756 0058 2169     		ldr	r1, [r4, #16]
 2757 005a 79B9     		cbnz	r1, .L654
 2758 005c FFF7FEFF 		bl	create_chain
 2759 0060 0146     		mov	r1, r0
 2760 0062 2061     		str	r0, [r4, #16]
 2761 0064 03E0     		b	.L655
 2762              	.L653:
 2763 0066 6169     		ldr	r1, [r4, #20]
 2764 0068 FFF7FEFF 		bl	create_chain
 2765 006c 0146     		mov	r1, r0
 2766              	.L655:
 2767 006e 29B9     		cbnz	r1, .L654
 2768              	.L671:
 2769 0070 A368     		ldr	r3, [r4, #8]
 2770 0072 E268     		ldr	r2, [r4, #12]
 2771 0074 9342     		cmp	r3, r2
 2772 0076 7CD9     		bls	.L657
 2773 0078 E360     		str	r3, [r4, #12]
 2774 007a 7AE0     		b	.L657
 2775              	.L654:
 2776 007c 0129     		cmp	r1, #1
 2777 007e 12D0     		beq	.L679
 2778 0080 4E1C     		adds	r6, r1, #1
 2779 0082 56D0     		beq	.L680
 2780 0084 6161     		str	r1, [r4, #20]
 2781              	.L652:
 2782 0086 2068     		ldr	r0, [r4]
 2783 0088 A369     		ldr	r3, [r4, #24]
 2784 008a 426B     		ldr	r2, [r0, #52]
 2785 008c 9A42     		cmp	r2, r3
 2786 008e 03D1     		bne	.L660
 2787 0090 FFF7FEFF 		bl	sync_window
 2788 0094 0028     		cmp	r0, #0
 2789 0096 4CD1     		bne	.L680
 2790              	.L660:
 2791 0098 D4F800C0 		ldr	ip, [r4]
 2792 009c 6169     		ldr	r1, [r4, #20]
 2793 009e 6046     		mov	r0, ip
 2794 00a0 FFF7FEFF 		bl	clust2sect
 2795 00a4 20B9     		cbnz	r0, .L661
 2796              	.L679:
 2797 00a6 A379     		ldrb	r3, [r4, #6]	@ zero_extendqisi2
 2798 00a8 63F07F03 		orn	r3, r3, #127
 2799 00ac A371     		strb	r3, [r4, #6]
 2800 00ae 67E0     		b	.L673
 2801              	.L661:
 2802 00b0 6E0A     		lsrs	r6, r5, #9
 2803 00b2 00EB0A0B 		add	fp, r0, r10
 2804 00b6 22D0     		beq	.L662
 2805 00b8 9CF80230 		ldrb	r3, [ip, #2]	@ zero_extendqisi2
 2806 00bc 06EB0A02 		add	r2, r6, r10
 2807 00c0 9A42     		cmp	r2, r3
 2808 00c2 88BF     		it	hi
 2809 00c4 CAEB0306 		rsbhi	r6, r10, r3
 2810 00c8 9CF80100 		ldrb	r0, [ip, #1]	@ zero_extendqisi2
 2811 00cc 3946     		mov	r1, r7
 2812 00ce 5A46     		mov	r2, fp
 2813 00d0 F3B2     		uxtb	r3, r6
 2814 00d2 FFF7FEFF 		bl	disk_write
 2815 00d6 8446     		mov	ip, r0
 2816 00d8 58BB     		cbnz	r0, .L680
 2817 00da 2068     		ldr	r0, [r4]
 2818 00dc 416B     		ldr	r1, [r0, #52]
 2819 00de CBEB0101 		rsb	r1, fp, r1
 2820 00e2 B142     		cmp	r1, r6
 2821 00e4 09D2     		bcs	.L665
 2822 00e6 3830     		adds	r0, r0, #56
 2823 00e8 07EB4121 		add	r1, r7, r1, lsl #9
 2824 00ec 4FF40072 		mov	r2, #512
 2825 00f0 FFF7FEFF 		bl	mem_cpy
 2826 00f4 2368     		ldr	r3, [r4]
 2827 00f6 83F804C0 		strb	ip, [r3, #4]
 2828              	.L665:
 2829 00fa 7602     		lsls	r6, r6, #9
 2830 00fc 2EE0     		b	.L666
 2831              	.L662:
 2832 00fe A268     		ldr	r2, [r4, #8]
 2833 0100 E368     		ldr	r3, [r4, #12]
 2834 0102 9A42     		cmp	r2, r3
 2835 0104 06D3     		bcc	.L667
 2836 0106 6046     		mov	r0, ip
 2837 0108 FFF7FEFF 		bl	sync_window
 2838 010c 88B9     		cbnz	r0, .L680
 2839 010e 2368     		ldr	r3, [r4]
 2840 0110 C3F834B0 		str	fp, [r3, #52]
 2841              	.L667:
 2842 0114 C4F818B0 		str	fp, [r4, #24]
 2843              	.L651:
 2844 0118 A668     		ldr	r6, [r4, #8]
 2845 011a 2068     		ldr	r0, [r4]
 2846 011c C6F30806 		ubfx	r6, r6, #0, #9
 2847 0120 C6F50076 		rsb	r6, r6, #512
 2848 0124 A169     		ldr	r1, [r4, #24]
 2849 0126 B542     		cmp	r5, r6
 2850 0128 38BF     		it	cc
 2851 012a 2E46     		movcc	r6, r5
 2852 012c FFF7FEFF 		bl	move_window
 2853 0130 30B1     		cbz	r0, .L669
 2854              	.L680:
 2855 0132 A379     		ldrb	r3, [r4, #6]	@ zero_extendqisi2
 2856 0134 0120     		movs	r0, #1
 2857 0136 63F07F03 		orn	r3, r3, #127
 2858 013a A371     		strb	r3, [r4, #6]
 2859 013c BDE8F88F 		pop	{r3, r4, r5, r6, r7, r8, r9, r10, fp, pc}
 2860              	.L669:
 2861 0140 A368     		ldr	r3, [r4, #8]
 2862 0142 3946     		mov	r1, r7
 2863 0144 C3F30803 		ubfx	r3, r3, #0, #9
 2864 0148 03F13800 		add	r0, r3, #56
 2865 014c 2368     		ldr	r3, [r4]
 2866 014e 3246     		mov	r2, r6
 2867 0150 1844     		add	r0, r0, r3
 2868 0152 FFF7FEFF 		bl	mem_cpy
 2869 0156 2368     		ldr	r3, [r4]
 2870 0158 83F80490 		strb	r9, [r3, #4]
 2871              	.L666:
 2872 015c A368     		ldr	r3, [r4, #8]
 2873 015e 3744     		add	r7, r7, r6
 2874 0160 3344     		add	r3, r3, r6
 2875 0162 A360     		str	r3, [r4, #8]
 2876 0164 D8F80030 		ldr	r3, [r8]
 2877 0168 AD1B     		subs	r5, r5, r6
 2878 016a 3344     		add	r3, r3, r6
 2879 016c C8F80030 		str	r3, [r8]
 2880 0170 61E7     		b	.L650
 2881              	.L657:
 2882 0172 A379     		ldrb	r3, [r4, #6]	@ zero_extendqisi2
 2883 0174 0020     		movs	r0, #0
 2884 0176 43F02003 		orr	r3, r3, #32
 2885 017a A371     		strb	r3, [r4, #6]
 2886 017c BDE8F88F 		pop	{r3, r4, r5, r6, r7, r8, r9, r10, fp, pc}
 2887              	.L673:
 2888 0180 0220     		movs	r0, #2
 2889 0182 BDE8F88F 		pop	{r3, r4, r5, r6, r7, r8, r9, r10, fp, pc}
 2890              	.L674:
 2891 0186 0720     		movs	r0, #7
 2892              	.L648:
 2893 0188 BDE8F88F 		pop	{r3, r4, r5, r6, r7, r8, r9, r10, fp, pc}
 2895              		.section	.text.f_sync,"ax",%progbits
 2896              		.align	1
 2897              		.global	f_sync
 2898              		.thumb
 2899              		.thumb_func
 2901              	f_sync:
 2902              		@ args = 0, pretend = 0, frame = 0
 2903              		@ frame_needed = 0, uses_anonymous_args = 0
 2904 0000 70B5     		push	{r4, r5, r6, lr}
 2905 0002 0546     		mov	r5, r0
 2906 0004 FFF7FEFF 		bl	validate
 2907 0008 0028     		cmp	r0, #0
 2908 000a 37D1     		bne	.L682
 2909 000c AB79     		ldrb	r3, [r5, #6]	@ zero_extendqisi2
 2910 000e 9906     		lsls	r1, r3, #26
 2911 0010 34D5     		bpl	.L682
 2912 0012 2868     		ldr	r0, [r5]
 2913 0014 E969     		ldr	r1, [r5, #28]
 2914 0016 FFF7FEFF 		bl	move_window
 2915 001a 0646     		mov	r6, r0
 2916 001c 76BB     		cbnz	r6, .L682
 2917 001e 2C6A     		ldr	r4, [r5, #32]
 2918 0020 E37A     		ldrb	r3, [r4, #11]	@ zero_extendqisi2
 2919 0022 43F02003 		orr	r3, r3, #32
 2920 0026 E372     		strb	r3, [r4, #11]
 2921 0028 EB68     		ldr	r3, [r5, #12]
 2922 002a 2377     		strb	r3, [r4, #28]
 2923 002c AB89     		ldrh	r3, [r5, #12]
 2924 002e 1B0A     		lsrs	r3, r3, #8
 2925 0030 6377     		strb	r3, [r4, #29]
 2926 0032 EB89     		ldrh	r3, [r5, #14]
 2927 0034 A377     		strb	r3, [r4, #30]
 2928 0036 EB7B     		ldrb	r3, [r5, #15]	@ zero_extendqisi2
 2929 0038 E377     		strb	r3, [r4, #31]
 2930 003a 2B69     		ldr	r3, [r5, #16]
 2931 003c C3F30722 		ubfx	r2, r3, #8, #8
 2932 0040 A376     		strb	r3, [r4, #26]
 2933 0042 1B0C     		lsrs	r3, r3, #16
 2934 0044 2375     		strb	r3, [r4, #20]
 2935 0046 1B0A     		lsrs	r3, r3, #8
 2936 0048 E276     		strb	r2, [r4, #27]
 2937 004a 6375     		strb	r3, [r4, #21]
 2938 004c FFF7FEFF 		bl	get_fattime
 2939 0050 C0F30723 		ubfx	r3, r0, #8, #8
 2940 0054 A075     		strb	r0, [r4, #22]
 2941 0056 E375     		strb	r3, [r4, #23]
 2942 0058 030C     		lsrs	r3, r0, #16
 2943 005a 000E     		lsrs	r0, r0, #24
 2944 005c 2376     		strb	r3, [r4, #24]
 2945 005e 6076     		strb	r0, [r4, #25]
 2946 0060 A674     		strb	r6, [r4, #18]
 2947 0062 E674     		strb	r6, [r4, #19]
 2948 0064 AB79     		ldrb	r3, [r5, #6]	@ zero_extendqisi2
 2949 0066 0122     		movs	r2, #1
 2950 0068 23F02003 		bic	r3, r3, #32
 2951 006c AB71     		strb	r3, [r5, #6]
 2952 006e 2B68     		ldr	r3, [r5]
 2953 0070 1A71     		strb	r2, [r3, #4]
 2954 0072 2868     		ldr	r0, [r5]
 2955 0074 BDE87040 		pop	{r4, r5, r6, lr}
 2956 0078 FFF7FEBF 		b	sync_fs
 2957              	.L682:
 2958 007c 70BD     		pop	{r4, r5, r6, pc}
 2960              		.section	.text.f_close,"ax",%progbits
 2961              		.align	1
 2962              		.global	f_close
 2963              		.thumb
 2964              		.thumb_func
 2966              	f_close:
 2967              		@ args = 0, pretend = 0, frame = 0
 2968              		@ frame_needed = 0, uses_anonymous_args = 0
 2969 0000 10B5     		push	{r4, lr}
 2970 0002 0446     		mov	r4, r0
 2971 0004 FFF7FEFF 		bl	f_sync
 2972 0008 00B9     		cbnz	r0, .L687
 2973 000a 2060     		str	r0, [r4]
 2974              	.L687:
 2975 000c 10BD     		pop	{r4, pc}
 2977              		.section	.text.f_chdrive,"ax",%progbits
 2978              		.align	1
 2979              		.global	f_chdrive
 2980              		.thumb
 2981              		.thumb_func
 2983              	f_chdrive:
 2984              		@ args = 0, pretend = 0, frame = 0
 2985              		@ frame_needed = 0, uses_anonymous_args = 0
 2986              		@ link register save eliminated.
 2987 0000 10B9     		cbnz	r0, .L690
 2988 0002 024B     		ldr	r3, .L691
 2989 0004 1870     		strb	r0, [r3]
 2990 0006 7047     		bx	lr
 2991              	.L690:
 2992 0008 0B20     		movs	r0, #11
 2993 000a 7047     		bx	lr
 2994              	.L692:
 2995              		.align	2
 2996              	.L691:
 2997 000c 00000000 		.word	.LANCHOR0
 2999              		.section	.text.f_chdir,"ax",%progbits
 3000              		.align	1
 3001              		.global	f_chdir
 3002              		.thumb
 3003              		.thumb_func
 3005              	f_chdir:
 3006              		@ args = 0, pretend = 0, frame = 56
 3007              		@ frame_needed = 0, uses_anonymous_args = 0
 3008 0000 30B5     		push	{r4, r5, lr}
 3009 0002 8FB0     		sub	sp, sp, #60
 3010 0004 0EAB     		add	r3, sp, #56
 3011 0006 43F8340D 		str	r0, [r3, #-52]!
 3012 000a 1846     		mov	r0, r3
 3013 000c 05A9     		add	r1, sp, #20
 3014 000e 0022     		movs	r2, #0
 3015 0010 FFF7FEFF 		bl	chk_mounted
 3016 0014 0446     		mov	r4, r0
 3017 0016 E8B9     		cbnz	r0, .L701
 3018 0018 02AB     		add	r3, sp, #8
 3019 001a 0B93     		str	r3, [sp, #44]
 3020 001c 0F4B     		ldr	r3, .L702
 3021 001e 05A8     		add	r0, sp, #20
 3022 0020 0199     		ldr	r1, [sp, #4]
 3023 0022 0C93     		str	r3, [sp, #48]
 3024 0024 FFF7FEFF 		bl	follow_path
 3025 0028 0446     		mov	r4, r0
 3026 002a 70B9     		cbnz	r0, .L695
 3027 002c 0A99     		ldr	r1, [sp, #40]
 3028 002e 19B9     		cbnz	r1, .L696
 3029 0030 079A     		ldr	r2, [sp, #28]
 3030 0032 059B     		ldr	r3, [sp, #20]
 3031 0034 9A61     		str	r2, [r3, #24]
 3032 0036 0DE0     		b	.L701
 3033              	.L696:
 3034 0038 CB7A     		ldrb	r3, [r1, #11]	@ zero_extendqisi2
 3035 003a D806     		lsls	r0, r3, #27
 3036 003c 09D5     		bpl	.L699
 3037 003e 059D     		ldr	r5, [sp, #20]
 3038 0040 2878     		ldrb	r0, [r5]	@ zero_extendqisi2
 3039 0042 FFF7FEFF 		bl	ld_clust.isra.0
 3040 0046 A861     		str	r0, [r5, #24]
 3041 0048 04E0     		b	.L701
 3042              	.L695:
 3043 004a 0428     		cmp	r0, #4
 3044 004c 08BF     		it	eq
 3045 004e 0524     		moveq	r4, #5
 3046 0050 00E0     		b	.L701
 3047              	.L699:
 3048 0052 0524     		movs	r4, #5
 3049              	.L701:
 3050 0054 2046     		mov	r0, r4
 3051 0056 0FB0     		add	sp, sp, #60
 3052              		@ sp needed
 3053 0058 30BD     		pop	{r4, r5, pc}
 3054              	.L703:
 3055 005a 00BF     		.align	2
 3056              	.L702:
 3057 005c 00000000 		.word	.LANCHOR4
 3059              		.section	.text.f_lseek,"ax",%progbits
 3060              		.align	1
 3061              		.global	f_lseek
 3062              		.thumb
 3063              		.thumb_func
 3065              	f_lseek:
 3066              		@ args = 0, pretend = 0, frame = 0
 3067              		@ frame_needed = 0, uses_anonymous_args = 0
 3068 0000 70B5     		push	{r4, r5, r6, lr}
 3069 0002 0446     		mov	r4, r0
 3070 0004 0D46     		mov	r5, r1
 3071 0006 FFF7FEFF 		bl	validate
 3072 000a 0028     		cmp	r0, #0
 3073 000c 77D1     		bne	.L705
 3074 000e A279     		ldrb	r2, [r4, #6]	@ zero_extendqisi2
 3075 0010 1606     		lsls	r6, r2, #24
 3076 0012 71D4     		bmi	.L726
 3077 0014 E368     		ldr	r3, [r4, #12]
 3078 0016 9D42     		cmp	r5, r3
 3079 0018 03D9     		bls	.L706
 3080 001a 12F0020F 		tst	r2, #2
 3081 001e 08BF     		it	eq
 3082 0020 1D46     		moveq	r5, r3
 3083              	.L706:
 3084 0022 0022     		movs	r2, #0
 3085 0024 A368     		ldr	r3, [r4, #8]
 3086 0026 A260     		str	r2, [r4, #8]
 3087 0028 0DB9     		cbnz	r5, .L707
 3088              	.L714:
 3089 002a 0025     		movs	r5, #0
 3090 002c 53E0     		b	.L708
 3091              	.L707:
 3092 002e 2068     		ldr	r0, [r4]
 3093 0030 8678     		ldrb	r6, [r0, #2]	@ zero_extendqisi2
 3094 0032 7602     		lsls	r6, r6, #9
 3095 0034 6BB1     		cbz	r3, .L709
 3096 0036 013B     		subs	r3, r3, #1
 3097 0038 691E     		subs	r1, r5, #1
 3098 003a B1FBF6F1 		udiv	r1, r1, r6
 3099 003e B3FBF6F2 		udiv	r2, r3, r6
 3100 0042 9142     		cmp	r1, r2
 3101 0044 05D3     		bcc	.L709
 3102 0046 7242     		negs	r2, r6
 3103 0048 1340     		ands	r3, r3, r2
 3104 004a A360     		str	r3, [r4, #8]
 3105 004c ED1A     		subs	r5, r5, r3
 3106 004e 6169     		ldr	r1, [r4, #20]
 3107 0050 0AE0     		b	.L710
 3108              	.L709:
 3109 0052 2169     		ldr	r1, [r4, #16]
 3110 0054 39B9     		cbnz	r1, .L711
 3111 0056 FFF7FEFF 		bl	create_chain
 3112 005a 0128     		cmp	r0, #1
 3113 005c 0146     		mov	r1, r0
 3114 005e 33D0     		beq	.L743
 3115 0060 0130     		adds	r0, r0, #1
 3116 0062 1BD0     		beq	.L742
 3117 0064 2161     		str	r1, [r4, #16]
 3118              	.L711:
 3119 0066 6161     		str	r1, [r4, #20]
 3120              	.L710:
 3121 0068 0029     		cmp	r1, #0
 3122 006a DED0     		beq	.L714
 3123 006c 0AE0     		b	.L715
 3124              	.L719:
 3125 006e 0129     		cmp	r1, #1
 3126 0070 2AD9     		bls	.L743
 3127 0072 2368     		ldr	r3, [r4]
 3128 0074 DB69     		ldr	r3, [r3, #28]
 3129 0076 9942     		cmp	r1, r3
 3130 0078 26D2     		bcs	.L743
 3131 007a A368     		ldr	r3, [r4, #8]
 3132 007c 6161     		str	r1, [r4, #20]
 3133 007e 3344     		add	r3, r3, r6
 3134 0080 A360     		str	r3, [r4, #8]
 3135 0082 AD1B     		subs	r5, r5, r6
 3136              	.L715:
 3137 0084 B542     		cmp	r5, r6
 3138 0086 14D9     		bls	.L717
 3139 0088 A379     		ldrb	r3, [r4, #6]	@ zero_extendqisi2
 3140 008a 2068     		ldr	r0, [r4]
 3141 008c 9A07     		lsls	r2, r3, #30
 3142 008e 0BD5     		bpl	.L716
 3143 0090 FFF7FEFF 		bl	create_chain
 3144 0094 0146     		mov	r1, r0
 3145 0096 58B1     		cbz	r0, .L744
 3146              	.L718:
 3147 0098 4B1C     		adds	r3, r1, #1
 3148 009a E8D1     		bne	.L719
 3149              	.L742:
 3150 009c A379     		ldrb	r3, [r4, #6]	@ zero_extendqisi2
 3151 009e 0120     		movs	r0, #1
 3152 00a0 63F07F03 		orn	r3, r3, #127
 3153 00a4 A371     		strb	r3, [r4, #6]
 3154 00a6 70BD     		pop	{r4, r5, r6, pc}
 3155              	.L716:
 3156 00a8 FFF7FEFF 		bl	get_fat
 3157 00ac 0146     		mov	r1, r0
 3158 00ae F3E7     		b	.L718
 3159              	.L744:
 3160 00b0 3546     		mov	r5, r6
 3161              	.L717:
 3162 00b2 A368     		ldr	r3, [r4, #8]
 3163 00b4 2B44     		add	r3, r3, r5
 3164 00b6 A360     		str	r3, [r4, #8]
 3165 00b8 C5F30803 		ubfx	r3, r5, #0, #9
 3166 00bc 002B     		cmp	r3, #0
 3167 00be B4D0     		beq	.L714
 3168 00c0 2068     		ldr	r0, [r4]
 3169 00c2 FFF7FEFF 		bl	clust2sect
 3170 00c6 20B9     		cbnz	r0, .L723
 3171              	.L743:
 3172 00c8 A379     		ldrb	r3, [r4, #6]	@ zero_extendqisi2
 3173 00ca 63F07F03 		orn	r3, r3, #127
 3174 00ce A371     		strb	r3, [r4, #6]
 3175 00d0 12E0     		b	.L726
 3176              	.L723:
 3177 00d2 00EB5525 		add	r5, r0, r5, lsr #9
 3178              	.L708:
 3179 00d6 A368     		ldr	r3, [r4, #8]
 3180 00d8 C3F30802 		ubfx	r2, r3, #0, #9
 3181 00dc 1AB1     		cbz	r2, .L724
 3182 00de A269     		ldr	r2, [r4, #24]
 3183 00e0 9542     		cmp	r5, r2
 3184 00e2 18BF     		it	ne
 3185 00e4 A561     		strne	r5, [r4, #24]
 3186              	.L724:
 3187 00e6 E268     		ldr	r2, [r4, #12]
 3188 00e8 9342     		cmp	r3, r2
 3189 00ea 07D9     		bls	.L729
 3190 00ec E360     		str	r3, [r4, #12]
 3191 00ee A379     		ldrb	r3, [r4, #6]	@ zero_extendqisi2
 3192 00f0 43F02003 		orr	r3, r3, #32
 3193 00f4 A371     		strb	r3, [r4, #6]
 3194 00f6 01E0     		b	.L729
 3195              	.L726:
 3196 00f8 0220     		movs	r0, #2
 3197 00fa 70BD     		pop	{r4, r5, r6, pc}
 3198              	.L729:
 3199 00fc 0020     		movs	r0, #0
 3200              	.L705:
 3201 00fe 70BD     		pop	{r4, r5, r6, pc}
 3203              		.section	.text.f_opendir,"ax",%progbits
 3204              		.align	1
 3205              		.global	f_opendir
 3206              		.thumb
 3207              		.thumb_func
 3209              	f_opendir:
 3210              		@ args = 0, pretend = 0, frame = 24
 3211              		@ frame_needed = 0, uses_anonymous_args = 0
 3212 0000 30B5     		push	{r4, r5, lr}
 3213 0002 87B0     		sub	sp, sp, #28
 3214 0004 0191     		str	r1, [sp, #4]
 3215 0006 0446     		mov	r4, r0
 3216 0008 30B3     		cbz	r0, .L751
 3217 000a 01A8     		add	r0, sp, #4
 3218 000c 2146     		mov	r1, r4
 3219 000e 0022     		movs	r2, #0
 3220 0010 FFF7FEFF 		bl	chk_mounted
 3221 0014 2568     		ldr	r5, [r4]
 3222 0016 E0B9     		cbnz	r0, .L747
 3223 0018 03AB     		add	r3, sp, #12
 3224 001a A361     		str	r3, [r4, #24]
 3225 001c 104B     		ldr	r3, .L759
 3226 001e 2046     		mov	r0, r4
 3227 0020 E361     		str	r3, [r4, #28]
 3228 0022 0199     		ldr	r1, [sp, #4]
 3229 0024 FFF7FEFF 		bl	follow_path
 3230 0028 70B9     		cbnz	r0, .L748
 3231 002a 6169     		ldr	r1, [r4, #20]
 3232 002c 31B1     		cbz	r1, .L749
 3233 002e CB7A     		ldrb	r3, [r1, #11]	@ zero_extendqisi2
 3234 0030 DB06     		lsls	r3, r3, #27
 3235 0032 0DD5     		bpl	.L753
 3236 0034 2878     		ldrb	r0, [r5]	@ zero_extendqisi2
 3237 0036 FFF7FEFF 		bl	ld_clust.isra.0
 3238 003a A060     		str	r0, [r4, #8]
 3239              	.L749:
 3240 003c EB88     		ldrh	r3, [r5, #6]
 3241 003e 2046     		mov	r0, r4
 3242 0040 A380     		strh	r3, [r4, #4]	@ movhi
 3243 0042 0021     		movs	r1, #0
 3244 0044 FFF7FEFF 		bl	dir_sdi
 3245              	.L748:
 3246 0048 0428     		cmp	r0, #4
 3247 004a 01D0     		beq	.L753
 3248 004c 28B1     		cbz	r0, .L758
 3249 004e 00E0     		b	.L747
 3250              	.L753:
 3251 0050 0520     		movs	r0, #5
 3252              	.L747:
 3253 0052 0023     		movs	r3, #0
 3254 0054 2360     		str	r3, [r4]
 3255 0056 00E0     		b	.L758
 3256              	.L751:
 3257 0058 0920     		movs	r0, #9
 3258              	.L758:
 3259 005a 07B0     		add	sp, sp, #28
 3260              		@ sp needed
 3261 005c 30BD     		pop	{r4, r5, pc}
 3262              	.L760:
 3263 005e 00BF     		.align	2
 3264              	.L759:
 3265 0060 00000000 		.word	.LANCHOR4
 3267              		.section	.text.f_readdir,"ax",%progbits
 3268              		.align	1
 3269              		.global	f_readdir
 3270              		.thumb
 3271              		.thumb_func
 3273              	f_readdir:
 3274              		@ args = 0, pretend = 0, frame = 16
 3275              		@ frame_needed = 0, uses_anonymous_args = 0
 3276 0000 7FB5     		push	{r0, r1, r2, r3, r4, r5, r6, lr}
 3277 0002 0446     		mov	r4, r0
 3278 0004 0E46     		mov	r6, r1
 3279 0006 FFF7FEFF 		bl	validate
 3280 000a 0546     		mov	r5, r0
 3281 000c F8B9     		cbnz	r0, .L762
 3282 000e 26B9     		cbnz	r6, .L763
 3283 0010 2046     		mov	r0, r4
 3284 0012 2946     		mov	r1, r5
 3285 0014 FFF7FEFF 		bl	dir_sdi
 3286 0018 18E0     		b	.L767
 3287              	.L763:
 3288 001a 01AB     		add	r3, sp, #4
 3289 001c A361     		str	r3, [r4, #24]
 3290 001e 0D4B     		ldr	r3, .L768
 3291 0020 2046     		mov	r0, r4
 3292 0022 E361     		str	r3, [r4, #28]
 3293 0024 FFF7FEFF 		bl	dir_read.constprop.8
 3294 0028 0428     		cmp	r0, #4
 3295 002a 01D1     		bne	.L764
 3296 002c 2561     		str	r5, [r4, #16]
 3297 002e 00E0     		b	.L765
 3298              	.L764:
 3299 0030 60B9     		cbnz	r0, .L767
 3300              	.L765:
 3301 0032 2046     		mov	r0, r4
 3302 0034 3146     		mov	r1, r6
 3303 0036 FFF7FEFF 		bl	get_fileinfo
 3304 003a 2046     		mov	r0, r4
 3305 003c 0021     		movs	r1, #0
 3306 003e FFF7FEFF 		bl	dir_next
 3307 0042 0428     		cmp	r0, #4
 3308 0044 02D1     		bne	.L767
 3309 0046 0023     		movs	r3, #0
 3310 0048 2361     		str	r3, [r4, #16]
 3311 004a 00E0     		b	.L762
 3312              	.L767:
 3313 004c 0546     		mov	r5, r0
 3314              	.L762:
 3315 004e 2846     		mov	r0, r5
 3316 0050 04B0     		add	sp, sp, #16
 3317              		@ sp needed
 3318 0052 70BD     		pop	{r4, r5, r6, pc}
 3319              	.L769:
 3320              		.align	2
 3321              	.L768:
 3322 0054 00000000 		.word	.LANCHOR4
 3324              		.section	.text.f_stat,"ax",%progbits
 3325              		.align	1
 3326              		.global	f_stat
 3327              		.thumb
 3328              		.thumb_func
 3330              	f_stat:
 3331              		@ args = 0, pretend = 0, frame = 56
 3332              		@ frame_needed = 0, uses_anonymous_args = 0
 3333 0000 30B5     		push	{r4, r5, lr}
 3334 0002 8FB0     		sub	sp, sp, #60
 3335 0004 0EAB     		add	r3, sp, #56
 3336 0006 43F8340D 		str	r0, [r3, #-52]!
 3337 000a 0D46     		mov	r5, r1
 3338 000c 1846     		mov	r0, r3
 3339 000e 05A9     		add	r1, sp, #20
 3340 0010 0022     		movs	r2, #0
 3341 0012 FFF7FEFF 		bl	chk_mounted
 3342 0016 0446     		mov	r4, r0
 3343 0018 88B9     		cbnz	r0, .L771
 3344 001a 02AB     		add	r3, sp, #8
 3345 001c 0B93     		str	r3, [sp, #44]
 3346 001e 094B     		ldr	r3, .L773
 3347 0020 05A8     		add	r0, sp, #20
 3348 0022 0199     		ldr	r1, [sp, #4]
 3349 0024 0C93     		str	r3, [sp, #48]
 3350 0026 FFF7FEFF 		bl	follow_path
 3351 002a 0446     		mov	r4, r0
 3352 002c 38B9     		cbnz	r0, .L771
 3353 002e 0A9B     		ldr	r3, [sp, #40]
 3354 0030 23B1     		cbz	r3, .L772
 3355 0032 05A8     		add	r0, sp, #20
 3356 0034 2946     		mov	r1, r5
 3357 0036 FFF7FEFF 		bl	get_fileinfo
 3358 003a 00E0     		b	.L771
 3359              	.L772:
 3360 003c 0624     		movs	r4, #6
 3361              	.L771:
 3362 003e 2046     		mov	r0, r4
 3363 0040 0FB0     		add	sp, sp, #60
 3364              		@ sp needed
 3365 0042 30BD     		pop	{r4, r5, pc}
 3366              	.L774:
 3367              		.align	2
 3368              	.L773:
 3369 0044 00000000 		.word	.LANCHOR4
 3371              		.section	.text.f_getfree,"ax",%progbits
 3372              		.align	1
 3373              		.global	f_getfree
 3374              		.thumb
 3375              		.thumb_func
 3377              	f_getfree:
 3378              		@ args = 0, pretend = 0, frame = 8
 3379              		@ frame_needed = 0, uses_anonymous_args = 0
 3380 0000 2DE9F74F 		push	{r0, r1, r2, r4, r5, r6, r7, r8, r9, r10, fp, lr}
 3381 0004 02AB     		add	r3, sp, #8
 3382 0006 43F8040D 		str	r0, [r3, #-4]!
 3383 000a 1446     		mov	r4, r2
 3384 000c 8846     		mov	r8, r1
 3385 000e 1846     		mov	r0, r3
 3386 0010 1146     		mov	r1, r2
 3387 0012 0022     		movs	r2, #0
 3388 0014 FFF7FEFF 		bl	chk_mounted
 3389 0018 2468     		ldr	r4, [r4]
 3390 001a 0546     		mov	r5, r0
 3391 001c 0028     		cmp	r0, #0
 3392 001e 5DD1     		bne	.L776
 3393 0020 E769     		ldr	r7, [r4, #28]
 3394 0022 2369     		ldr	r3, [r4, #16]
 3395 0024 BA1E     		subs	r2, r7, #2
 3396 0026 9342     		cmp	r3, r2
 3397 0028 02D8     		bhi	.L777
 3398 002a C8F80030 		str	r3, [r8]
 3399 002e 55E0     		b	.L776
 3400              	.L777:
 3401 0030 94F80090 		ldrb	r9, [r4]	@ zero_extendqisi2
 3402 0034 B9F1010F 		cmp	r9, #1
 3403 0038 10D1     		bne	.L778
 3404 003a 0227     		movs	r7, #2
 3405 003c 0646     		mov	r6, r0
 3406              	.L781:
 3407 003e 2046     		mov	r0, r4
 3408 0040 3946     		mov	r1, r7
 3409 0042 FFF7FEFF 		bl	get_fat
 3410 0046 421C     		adds	r2, r0, #1
 3411 0048 3AD0     		beq	.L789
 3412 004a 0128     		cmp	r0, #1
 3413 004c 3AD0     		beq	.L790
 3414 004e 00B9     		cbnz	r0, .L780
 3415 0050 0136     		adds	r6, r6, #1
 3416              	.L780:
 3417 0052 E369     		ldr	r3, [r4, #28]
 3418 0054 0137     		adds	r7, r7, #1
 3419 0056 9F42     		cmp	r7, r3
 3420 0058 F1D3     		bcc	.L781
 3421 005a 36E0     		b	.L779
 3422              	.L778:
 3423 005c A16A     		ldr	r1, [r4, #40]
 3424 005e 0346     		mov	r3, r0
 3425 0060 0246     		mov	r2, r0
 3426 0062 0646     		mov	r6, r0
 3427              	.L787:
 3428 0064 52B9     		cbnz	r2, .L782
 3429 0066 2046     		mov	r0, r4
 3430 0068 01F1010A 		add	r10, r1, #1
 3431 006c FFF7FEFF 		bl	move_window
 3432 0070 50BB     		cbnz	r0, .L791
 3433 0072 04F13803 		add	r3, r4, #56
 3434 0076 5146     		mov	r1, r10
 3435 0078 4FF40072 		mov	r2, #512
 3436              	.L782:
 3437 007c B9F1020F 		cmp	r9, #2
 3438 0080 5878     		ldrb	r0, [r3, #1]	@ zero_extendqisi2
 3439 0082 93F800C0 		ldrb	ip, [r3]	@ zero_extendqisi2
 3440 0086 06D1     		bne	.L783
 3441 0088 5CEA002C 		orrs	ip, ip, r0, lsl #8
 3442 008c 08BF     		it	eq
 3443 008e 0136     		addeq	r6, r6, #1
 3444 0090 0233     		adds	r3, r3, #2
 3445 0092 023A     		subs	r2, r2, #2
 3446 0094 11E0     		b	.L785
 3447              	.L783:
 3448 0096 93F802A0 		ldrb	r10, [r3, #2]	@ zero_extendqisi2
 3449 009a 93F803B0 		ldrb	fp, [r3, #3]	@ zero_extendqisi2
 3450 009e 4FEA0A4A 		lsl	r10, r10, #16
 3451 00a2 4AEA0B6A 		orr	r10, r10, fp, lsl #24
 3452 00a6 4AEA0C0C 		orr	ip, r10, ip
 3453 00aa 4CEA0020 		orr	r0, ip, r0, lsl #8
 3454 00ae 20F07040 		bic	r0, r0, #-268435456
 3455 00b2 00B9     		cbnz	r0, .L786
 3456 00b4 0136     		adds	r6, r6, #1
 3457              	.L786:
 3458 00b6 0433     		adds	r3, r3, #4
 3459 00b8 043A     		subs	r2, r2, #4
 3460              	.L785:
 3461 00ba 013F     		subs	r7, r7, #1
 3462 00bc D2D1     		bne	.L787
 3463 00be 04E0     		b	.L779
 3464              	.L789:
 3465 00c0 0125     		movs	r5, #1
 3466 00c2 02E0     		b	.L779
 3467              	.L790:
 3468 00c4 0225     		movs	r5, #2
 3469 00c6 00E0     		b	.L779
 3470              	.L791:
 3471 00c8 0546     		mov	r5, r0
 3472              	.L779:
 3473 00ca B9F1030F 		cmp	r9, #3
 3474 00ce 08BF     		it	eq
 3475 00d0 0123     		moveq	r3, #1
 3476 00d2 2661     		str	r6, [r4, #16]
 3477 00d4 08BF     		it	eq
 3478 00d6 6371     		strbeq	r3, [r4, #5]
 3479 00d8 C8F80060 		str	r6, [r8]
 3480              	.L776:
 3481 00dc 2846     		mov	r0, r5
 3482 00de 03B0     		add	sp, sp, #12
 3483              		@ sp needed
 3484 00e0 BDE8F08F 		pop	{r4, r5, r6, r7, r8, r9, r10, fp, pc}
 3486              		.section	.text.f_truncate,"ax",%progbits
 3487              		.align	1
 3488              		.global	f_truncate
 3489              		.thumb
 3490              		.thumb_func
 3492              	f_truncate:
 3493              		@ args = 0, pretend = 0, frame = 0
 3494              		@ frame_needed = 0, uses_anonymous_args = 0
 3495 0000 70B5     		push	{r4, r5, r6, lr}
 3496 0002 0446     		mov	r4, r0
 3497 0004 FFF7FEFF 		bl	validate
 3498 0008 0546     		mov	r5, r0
 3499 000a 0028     		cmp	r0, #0
 3500 000c 3AD1     		bne	.L812
 3501 000e A379     		ldrb	r3, [r4, #6]	@ zero_extendqisi2
 3502 0010 1E06     		lsls	r6, r3, #24
 3503 0012 31D4     		bmi	.L807
 3504 0014 9807     		lsls	r0, r3, #30
 3505 0016 31D5     		bpl	.L808
 3506 0018 A668     		ldr	r6, [r4, #8]
 3507 001a E268     		ldr	r2, [r4, #12]
 3508 001c B242     		cmp	r2, r6
 3509 001e 31D9     		bls	.L812
 3510 0020 43F02003 		orr	r3, r3, #32
 3511 0024 E660     		str	r6, [r4, #12]
 3512 0026 A371     		strb	r3, [r4, #6]
 3513 0028 2068     		ldr	r0, [r4]
 3514 002a 2EB9     		cbnz	r6, .L798
 3515 002c 2169     		ldr	r1, [r4, #16]
 3516 002e FFF7FEFF 		bl	remove_chain
 3517 0032 2661     		str	r6, [r4, #16]
 3518 0034 0546     		mov	r5, r0
 3519 0036 19E0     		b	.L799
 3520              	.L798:
 3521 0038 6169     		ldr	r1, [r4, #20]
 3522 003a FFF7FEFF 		bl	get_fat
 3523 003e 411C     		adds	r1, r0, #1
 3524 0040 0646     		mov	r6, r0
 3525 0042 1DD0     		beq	.L809
 3526 0044 0128     		cmp	r0, #1
 3527 0046 01D1     		bne	.L816
 3528 0048 0225     		movs	r5, #2
 3529 004a 10E0     		b	.L805
 3530              	.L816:
 3531 004c 2068     		ldr	r0, [r4]
 3532 004e C369     		ldr	r3, [r0, #28]
 3533 0050 9E42     		cmp	r6, r3
 3534 0052 17D2     		bcs	.L812
 3535 0054 6169     		ldr	r1, [r4, #20]
 3536 0056 6FF07042 		mvn	r2, #-268435456
 3537 005a FFF7FEFF 		bl	put_fat
 3538 005e 0546     		mov	r5, r0
 3539 0060 28B9     		cbnz	r0, .L805
 3540 0062 2068     		ldr	r0, [r4]
 3541 0064 3146     		mov	r1, r6
 3542 0066 FFF7FEFF 		bl	remove_chain
 3543 006a 0546     		mov	r5, r0
 3544              	.L799:
 3545 006c 55B1     		cbz	r5, .L812
 3546              	.L805:
 3547 006e A379     		ldrb	r3, [r4, #6]	@ zero_extendqisi2
 3548 0070 63F07F03 		orn	r3, r3, #127
 3549 0074 A371     		strb	r3, [r4, #6]
 3550 0076 05E0     		b	.L812
 3551              	.L807:
 3552 0078 0225     		movs	r5, #2
 3553 007a 03E0     		b	.L812
 3554              	.L808:
 3555 007c 0725     		movs	r5, #7
 3556 007e 01E0     		b	.L812
 3557              	.L809:
 3558 0080 0125     		movs	r5, #1
 3559 0082 F4E7     		b	.L805
 3560              	.L812:
 3561 0084 2846     		mov	r0, r5
 3562 0086 70BD     		pop	{r4, r5, r6, pc}
 3564              		.section	.text.f_unlink,"ax",%progbits
 3565              		.align	1
 3566              		.global	f_unlink
 3567              		.thumb
 3568              		.thumb_func
 3570              	f_unlink:
 3571              		@ args = 0, pretend = 0, frame = 96
 3572              		@ frame_needed = 0, uses_anonymous_args = 0
 3573 0000 70B5     		push	{r4, r5, r6, lr}
 3574 0002 98B0     		sub	sp, sp, #96
 3575 0004 18AB     		add	r3, sp, #96
 3576 0006 43F85C0D 		str	r0, [r3, #-92]!
 3577 000a 1846     		mov	r0, r3
 3578 000c 06A9     		add	r1, sp, #24
 3579 000e 0122     		movs	r2, #1
 3580 0010 FFF7FEFF 		bl	chk_mounted
 3581 0014 0446     		mov	r4, r0
 3582 0016 0028     		cmp	r0, #0
 3583 0018 55D1     		bne	.L837
 3584 001a 03AB     		add	r3, sp, #12
 3585 001c 0C93     		str	r3, [sp, #48]
 3586 001e 2B4B     		ldr	r3, .L848
 3587 0020 06A8     		add	r0, sp, #24
 3588 0022 0199     		ldr	r1, [sp, #4]
 3589 0024 0D93     		str	r3, [sp, #52]
 3590 0026 FFF7FEFF 		bl	follow_path
 3591 002a 0446     		mov	r4, r0
 3592 002c 0028     		cmp	r0, #0
 3593 002e 4AD1     		bne	.L837
 3594 0030 0C9B     		ldr	r3, [sp, #48]
 3595 0032 DB7A     		ldrb	r3, [r3, #11]	@ zero_extendqisi2
 3596 0034 9A06     		lsls	r2, r3, #26
 3597 0036 01D5     		bpl	.L846
 3598 0038 0624     		movs	r4, #6
 3599 003a 44E0     		b	.L837
 3600              	.L846:
 3601 003c 0B9E     		ldr	r6, [sp, #44]
 3602 003e 36B1     		cbz	r6, .L847
 3603 0040 F37A     		ldrb	r3, [r6, #11]	@ zero_extendqisi2
 3604 0042 13F0010F 		tst	r3, #1
 3605 0046 0CBF     		ite	eq
 3606 0048 0024     		moveq	r4, #0
 3607 004a 0724     		movne	r4, #7
 3608 004c 00E0     		b	.L821
 3609              	.L847:
 3610 004e 0624     		movs	r4, #6
 3611              	.L821:
 3612 0050 069B     		ldr	r3, [sp, #24]
 3613 0052 3146     		mov	r1, r6
 3614 0054 1878     		ldrb	r0, [r3]	@ zero_extendqisi2
 3615 0056 FFF7FEFF 		bl	ld_clust.isra.0
 3616 005a 0546     		mov	r5, r0
 3617 005c 002C     		cmp	r4, #0
 3618 005e 32D1     		bne	.L837
 3619 0060 F37A     		ldrb	r3, [r6, #11]	@ zero_extendqisi2
 3620 0062 DB06     		lsls	r3, r3, #27
 3621 0064 1DD5     		bpl	.L823
 3622 0066 0128     		cmp	r0, #1
 3623 0068 17D9     		bls	.L830
 3624 006a 0FA8     		add	r0, sp, #60
 3625 006c 06A9     		add	r1, sp, #24
 3626 006e 2422     		movs	r2, #36
 3627 0070 FFF7FEFF 		bl	mem_cpy
 3628 0074 0FA8     		add	r0, sp, #60
 3629 0076 0221     		movs	r1, #2
 3630 0078 1195     		str	r5, [sp, #68]
 3631 007a FFF7FEFF 		bl	dir_sdi
 3632 007e 0446     		mov	r4, r0
 3633 0080 08BB     		cbnz	r0, .L837
 3634 0082 0FA8     		add	r0, sp, #60
 3635 0084 FFF7FEFF 		bl	dir_read.constprop.8
 3636 0088 0446     		mov	r4, r0
 3637 008a 40B1     		cbz	r0, .L832
 3638 008c 069B     		ldr	r3, [sp, #24]
 3639 008e 9B69     		ldr	r3, [r3, #24]
 3640 0090 9D42     		cmp	r5, r3
 3641 0092 04D0     		beq	.L832
 3642 0094 0428     		cmp	r0, #4
 3643 0096 04D0     		beq	.L823
 3644 0098 15E0     		b	.L837
 3645              	.L830:
 3646 009a 0224     		movs	r4, #2
 3647 009c 13E0     		b	.L837
 3648              	.L832:
 3649 009e 0724     		movs	r4, #7
 3650 00a0 11E0     		b	.L837
 3651              	.L823:
 3652 00a2 06A8     		add	r0, sp, #24
 3653 00a4 FFF7FEFF 		bl	dir_remove
 3654 00a8 0446     		mov	r4, r0
 3655 00aa 60B9     		cbnz	r0, .L837
 3656 00ac 25B9     		cbnz	r5, .L824
 3657              	.L825:
 3658 00ae 0698     		ldr	r0, [sp, #24]
 3659 00b0 FFF7FEFF 		bl	sync_fs
 3660 00b4 0446     		mov	r4, r0
 3661 00b6 06E0     		b	.L837
 3662              	.L824:
 3663 00b8 0698     		ldr	r0, [sp, #24]
 3664 00ba 2946     		mov	r1, r5
 3665 00bc FFF7FEFF 		bl	remove_chain
 3666 00c0 0446     		mov	r4, r0
 3667 00c2 0028     		cmp	r0, #0
 3668 00c4 F3D0     		beq	.L825
 3669              	.L837:
 3670 00c6 2046     		mov	r0, r4
 3671 00c8 18B0     		add	sp, sp, #96
 3672              		@ sp needed
 3673 00ca 70BD     		pop	{r4, r5, r6, pc}
 3674              	.L849:
 3675              		.align	2
 3676              	.L848:
 3677 00cc 00000000 		.word	.LANCHOR4
 3679              		.section	.text.f_mkdir,"ax",%progbits
 3680              		.align	1
 3681              		.global	f_mkdir
 3682              		.thumb
 3683              		.thumb_func
 3685              	f_mkdir:
 3686              		@ args = 0, pretend = 0, frame = 72
 3687              		@ frame_needed = 0, uses_anonymous_args = 0
 3688 0000 2DE9F04F 		push	{r4, r5, r6, r7, r8, r9, r10, fp, lr}
 3689 0004 93B0     		sub	sp, sp, #76
 3690 0006 12AC     		add	r4, sp, #72
 3691 0008 44F8340D 		str	r0, [r4, #-52]!
 3692 000c FFF7FEFF 		bl	get_fattime
 3693 0010 09A9     		add	r1, sp, #36
 3694 0012 0646     		mov	r6, r0
 3695 0014 0122     		movs	r2, #1
 3696 0016 2046     		mov	r0, r4
 3697 0018 FFF7FEFF 		bl	chk_mounted
 3698 001c 0746     		mov	r7, r0
 3699 001e 0028     		cmp	r0, #0
 3700 0020 40F0C980 		bne	.L870
 3701 0024 06AB     		add	r3, sp, #24
 3702 0026 0F93     		str	r3, [sp, #60]
 3703 0028 654B     		ldr	r3, .L876
 3704 002a 09A8     		add	r0, sp, #36
 3705 002c 0599     		ldr	r1, [sp, #20]
 3706 002e 1093     		str	r3, [sp, #64]
 3707 0030 FFF7FEFF 		bl	follow_path
 3708 0034 0746     		mov	r7, r0
 3709 0036 D8B1     		cbz	r0, .L864
 3710 0038 0428     		cmp	r0, #4
 3711 003a 40F0BC80 		bne	.L870
 3712 003e 0F9B     		ldr	r3, [sp, #60]
 3713 0040 DB7A     		ldrb	r3, [r3, #11]	@ zero_extendqisi2
 3714 0042 03F02003 		and	r3, r3, #32
 3715 0046 03F0FF01 		and	r1, r3, #255
 3716 004a 9BB9     		cbnz	r3, .L865
 3717 004c 0998     		ldr	r0, [sp, #36]
 3718 004e FFF7FEFF 		bl	create_chain
 3719 0052 0446     		mov	r4, r0
 3720 0054 80B1     		cbz	r0, .L869
 3721 0056 012C     		cmp	r4, #1
 3722 0058 04D0     		beq	.L866
 3723 005a 611C     		adds	r1, r4, #1
 3724 005c 08BF     		it	eq
 3725 005e 0127     		moveq	r7, #1
 3726 0060 01D0     		beq	.L862
 3727 0062 0BE0     		b	.L874
 3728              	.L866:
 3729 0064 0227     		movs	r7, #2
 3730              	.L862:
 3731 0066 0998     		ldr	r0, [sp, #36]
 3732 0068 2146     		mov	r1, r4
 3733 006a FFF7FEFF 		bl	remove_chain
 3734 006e A2E0     		b	.L870
 3735              	.L864:
 3736 0070 0827     		movs	r7, #8
 3737 0072 A0E0     		b	.L870
 3738              	.L865:
 3739 0074 0627     		movs	r7, #6
 3740 0076 9EE0     		b	.L870
 3741              	.L869:
 3742 0078 0727     		movs	r7, #7
 3743 007a F4E7     		b	.L862
 3744              	.L874:
 3745 007c 0998     		ldr	r0, [sp, #36]
 3746 007e FFF7FEFF 		bl	sync_window
 3747 0082 0746     		mov	r7, r0
 3748 0084 0028     		cmp	r0, #0
 3749 0086 EED1     		bne	.L862
 3750 0088 DDF824A0 		ldr	r10, [sp, #36]
 3751 008c 2146     		mov	r1, r4
 3752 008e 5046     		mov	r0, r10
 3753 0090 FFF7FEFF 		bl	clust2sect
 3754 0094 0AF13805 		add	r5, r10, #56
 3755 0098 8446     		mov	ip, r0
 3756 009a 3946     		mov	r1, r7
 3757 009c 2846     		mov	r0, r5
 3758 009e 4FF40072 		mov	r2, #512
 3759 00a2 FFF7FEFF 		bl	mem_set
 3760 00a6 2846     		mov	r0, r5
 3761 00a8 2021     		movs	r1, #32
 3762 00aa 0B22     		movs	r2, #11
 3763 00ac FFF7FEFF 		bl	mem_set
 3764 00b0 1023     		movs	r3, #16
 3765 00b2 8AF84330 		strb	r3, [r10, #67]
 3766 00b6 C6F30743 		ubfx	r3, r6, #16, #8
 3767 00ba 0093     		str	r3, [sp]
 3768 00bc 8AF85030 		strb	r3, [r10, #80]
 3769 00c0 E3B2     		uxtb	r3, r4
 3770 00c2 0193     		str	r3, [sp, #4]
 3771 00c4 8AF85230 		strb	r3, [r10, #82]
 3772 00c8 C4F30723 		ubfx	r3, r4, #8, #8
 3773 00cc 0293     		str	r3, [sp, #8]
 3774 00ce 8AF85330 		strb	r3, [r10, #83]
 3775 00d2 230C     		lsrs	r3, r4, #16
 3776 00d4 DAB2     		uxtb	r2, r3
 3777 00d6 4FF02E0B 		mov	fp, #46
 3778 00da 1B0A     		lsrs	r3, r3, #8
 3779 00dc 5FFA86F9 		uxtb	r9, r6
 3780 00e0 C6F30728 		ubfx	r8, r6, #8, #8
 3781 00e4 360E     		lsrs	r6, r6, #24
 3782 00e6 0392     		str	r2, [sp, #12]
 3783 00e8 8AF84C20 		strb	r2, [r10, #76]
 3784 00ec 8AF84D30 		strb	r3, [r10, #77]
 3785 00f0 2946     		mov	r1, r5
 3786 00f2 2022     		movs	r2, #32
 3787 00f4 8AF838B0 		strb	fp, [r10, #56]
 3788 00f8 8AF84E90 		strb	r9, [r10, #78]
 3789 00fc 8AF84F80 		strb	r8, [r10, #79]
 3790 0100 8AF85160 		strb	r6, [r10, #81]
 3791 0104 0AF15800 		add	r0, r10, #88
 3792 0108 0493     		str	r3, [sp, #16]
 3793 010a FFF7FEFF 		bl	mem_cpy
 3794 010e 099A     		ldr	r2, [sp, #36]
 3795 0110 8AF859B0 		strb	fp, [r10, #89]
 3796 0114 1178     		ldrb	r1, [r2]	@ zero_extendqisi2
 3797 0116 0B9B     		ldr	r3, [sp, #44]
 3798 0118 0329     		cmp	r1, #3
 3799 011a 03D1     		bne	.L856
 3800 011c D16A     		ldr	r1, [r2, #44]
 3801 011e 8B42     		cmp	r3, r1
 3802 0120 08BF     		it	eq
 3803 0122 0023     		moveq	r3, #0
 3804              	.L856:
 3805 0124 8AF87230 		strb	r3, [r10, #114]
 3806 0128 C3F30721 		ubfx	r1, r3, #8, #8
 3807 012c 1B0C     		lsrs	r3, r3, #16
 3808 012e 8AF86C30 		strb	r3, [r10, #108]
 3809 0132 1B0A     		lsrs	r3, r3, #8
 3810 0134 8AF87310 		strb	r1, [r10, #115]
 3811 0138 8AF86D30 		strb	r3, [r10, #109]
 3812 013c 92F802A0 		ldrb	r10, [r2, #2]	@ zero_extendqisi2
 3813              	.L857:
 3814 0140 BAF1000F 		cmp	r10, #0
 3815 0144 18D0     		beq	.L875
 3816 0146 0998     		ldr	r0, [sp, #36]
 3817 0148 4FF00103 		mov	r3, #1
 3818 014c C0F834C0 		str	ip, [r0, #52]
 3819 0150 0371     		strb	r3, [r0, #4]
 3820 0152 0CF1010B 		add	fp, ip, #1
 3821 0156 FFF7FEFF 		bl	sync_window.part.2
 3822 015a 0746     		mov	r7, r0
 3823 015c 0028     		cmp	r0, #0
 3824 015e 82D1     		bne	.L862
 3825 0160 2846     		mov	r0, r5
 3826 0162 3946     		mov	r1, r7
 3827 0164 4FF40072 		mov	r2, #512
 3828 0168 FFF7FEFF 		bl	mem_set
 3829 016c 0AF1FF33 		add	r3, r10, #-1
 3830 0170 5FFA83FA 		uxtb	r10, r3
 3831 0174 DC46     		mov	ip, fp
 3832 0176 E3E7     		b	.L857
 3833              	.L875:
 3834 0178 09A8     		add	r0, sp, #36
 3835 017a FFF7FEFF 		bl	dir_register
 3836 017e 0746     		mov	r7, r0
 3837 0180 0028     		cmp	r0, #0
 3838 0182 7FF470AF 		bne	.L862
 3839 0186 0E9B     		ldr	r3, [sp, #56]
 3840 0188 1022     		movs	r2, #16
 3841 018a DA72     		strb	r2, [r3, #11]
 3842 018c 009A     		ldr	r2, [sp]
 3843 018e 0998     		ldr	r0, [sp, #36]
 3844 0190 1A76     		strb	r2, [r3, #24]
 3845 0192 019A     		ldr	r2, [sp, #4]
 3846 0194 83F81690 		strb	r9, [r3, #22]
 3847 0198 9A76     		strb	r2, [r3, #26]
 3848 019a 029A     		ldr	r2, [sp, #8]
 3849 019c 83F81780 		strb	r8, [r3, #23]
 3850 01a0 DA76     		strb	r2, [r3, #27]
 3851 01a2 039A     		ldr	r2, [sp, #12]
 3852 01a4 5E76     		strb	r6, [r3, #25]
 3853 01a6 1A75     		strb	r2, [r3, #20]
 3854 01a8 049A     		ldr	r2, [sp, #16]
 3855 01aa 5A75     		strb	r2, [r3, #21]
 3856 01ac 0123     		movs	r3, #1
 3857 01ae 0371     		strb	r3, [r0, #4]
 3858 01b0 FFF7FEFF 		bl	sync_fs
 3859 01b4 0746     		mov	r7, r0
 3860              	.L870:
 3861 01b6 3846     		mov	r0, r7
 3862 01b8 13B0     		add	sp, sp, #76
 3863              		@ sp needed
 3864 01ba BDE8F08F 		pop	{r4, r5, r6, r7, r8, r9, r10, fp, pc}
 3865              	.L877:
 3866 01be 00BF     		.align	2
 3867              	.L876:
 3868 01c0 00000000 		.word	.LANCHOR4
 3870              		.section	.text.f_chmod,"ax",%progbits
 3871              		.align	1
 3872              		.global	f_chmod
 3873              		.thumb
 3874              		.thumb_func
 3876              	f_chmod:
 3877              		@ args = 0, pretend = 0, frame = 56
 3878              		@ frame_needed = 0, uses_anonymous_args = 0
 3879 0000 30B5     		push	{r4, r5, lr}
 3880 0002 8FB0     		sub	sp, sp, #60
 3881 0004 0EAB     		add	r3, sp, #56
 3882 0006 43F8340D 		str	r0, [r3, #-52]!
 3883 000a 0C46     		mov	r4, r1
 3884 000c 1546     		mov	r5, r2
 3885 000e 1846     		mov	r0, r3
 3886 0010 05A9     		add	r1, sp, #20
 3887 0012 0122     		movs	r2, #1
 3888 0014 FFF7FEFF 		bl	chk_mounted
 3889 0018 F0B9     		cbnz	r0, .L885
 3890 001a 02AB     		add	r3, sp, #8
 3891 001c 0B93     		str	r3, [sp, #44]
 3892 001e 0F4B     		ldr	r3, .L888
 3893 0020 05A8     		add	r0, sp, #20
 3894 0022 0199     		ldr	r1, [sp, #4]
 3895 0024 0C93     		str	r3, [sp, #48]
 3896 0026 FFF7FEFF 		bl	follow_path
 3897 002a A8B9     		cbnz	r0, .L885
 3898 002c 0B9B     		ldr	r3, [sp, #44]
 3899 002e DB7A     		ldrb	r3, [r3, #11]	@ zero_extendqisi2
 3900 0030 9806     		lsls	r0, r3, #26
 3901 0032 10D4     		bmi	.L883
 3902 0034 0A9B     		ldr	r3, [sp, #40]
 3903 0036 73B1     		cbz	r3, .L883
 3904 0038 D97A     		ldrb	r1, [r3, #11]	@ zero_extendqisi2
 3905 003a 05F02702 		and	r2, r5, #39
 3906 003e 21EA0201 		bic	r1, r1, r2
 3907 0042 1440     		ands	r4, r4, r2
 3908 0044 41EA0402 		orr	r2, r1, r4
 3909 0048 0598     		ldr	r0, [sp, #20]
 3910 004a DA72     		strb	r2, [r3, #11]
 3911 004c 0123     		movs	r3, #1
 3912 004e 0371     		strb	r3, [r0, #4]
 3913 0050 FFF7FEFF 		bl	sync_fs
 3914 0054 00E0     		b	.L885
 3915              	.L883:
 3916 0056 0620     		movs	r0, #6
 3917              	.L885:
 3918 0058 0FB0     		add	sp, sp, #60
 3919              		@ sp needed
 3920 005a 30BD     		pop	{r4, r5, pc}
 3921              	.L889:
 3922              		.align	2
 3923              	.L888:
 3924 005c 00000000 		.word	.LANCHOR4
 3926              		.section	.text.f_utime,"ax",%progbits
 3927              		.align	1
 3928              		.global	f_utime
 3929              		.thumb
 3930              		.thumb_func
 3932              	f_utime:
 3933              		@ args = 0, pretend = 0, frame = 56
 3934              		@ frame_needed = 0, uses_anonymous_args = 0
 3935 0000 10B5     		push	{r4, lr}
 3936 0002 8EB0     		sub	sp, sp, #56
 3937 0004 0EAB     		add	r3, sp, #56
 3938 0006 43F8340D 		str	r0, [r3, #-52]!
 3939 000a 0C46     		mov	r4, r1
 3940 000c 1846     		mov	r0, r3
 3941 000e 05A9     		add	r1, sp, #20
 3942 0010 0122     		movs	r2, #1
 3943 0012 FFF7FEFF 		bl	chk_mounted
 3944 0016 F8B9     		cbnz	r0, .L897
 3945 0018 02AB     		add	r3, sp, #8
 3946 001a 0B93     		str	r3, [sp, #44]
 3947 001c 0F4B     		ldr	r3, .L900
 3948 001e 05A8     		add	r0, sp, #20
 3949 0020 0199     		ldr	r1, [sp, #4]
 3950 0022 0C93     		str	r3, [sp, #48]
 3951 0024 FFF7FEFF 		bl	follow_path
 3952 0028 B0B9     		cbnz	r0, .L897
 3953 002a 0B9B     		ldr	r3, [sp, #44]
 3954 002c DB7A     		ldrb	r3, [r3, #11]	@ zero_extendqisi2
 3955 002e 9B06     		lsls	r3, r3, #26
 3956 0030 11D4     		bmi	.L895
 3957 0032 0A9B     		ldr	r3, [sp, #40]
 3958 0034 7BB1     		cbz	r3, .L895
 3959 0036 E288     		ldrh	r2, [r4, #6]
 3960 0038 0598     		ldr	r0, [sp, #20]
 3961 003a 9A75     		strb	r2, [r3, #22]
 3962 003c E288     		ldrh	r2, [r4, #6]
 3963 003e 120A     		lsrs	r2, r2, #8
 3964 0040 DA75     		strb	r2, [r3, #23]
 3965 0042 A288     		ldrh	r2, [r4, #4]
 3966 0044 1A76     		strb	r2, [r3, #24]
 3967 0046 A288     		ldrh	r2, [r4, #4]
 3968 0048 120A     		lsrs	r2, r2, #8
 3969 004a 5A76     		strb	r2, [r3, #25]
 3970 004c 0123     		movs	r3, #1
 3971 004e 0371     		strb	r3, [r0, #4]
 3972 0050 FFF7FEFF 		bl	sync_fs
 3973 0054 00E0     		b	.L897
 3974              	.L895:
 3975 0056 0620     		movs	r0, #6
 3976              	.L897:
 3977 0058 0EB0     		add	sp, sp, #56
 3978              		@ sp needed
 3979 005a 10BD     		pop	{r4, pc}
 3980              	.L901:
 3981              		.align	2
 3982              	.L900:
 3983 005c 00000000 		.word	.LANCHOR4
 3985              		.section	.text.f_rename,"ax",%progbits
 3986              		.align	1
 3987              		.global	f_rename
 3988              		.thumb
 3989              		.thumb_func
 3991              	f_rename:
 3992              		@ args = 0, pretend = 0, frame = 120
 3993              		@ frame_needed = 0, uses_anonymous_args = 0
 3994 0000 30B5     		push	{r4, r5, lr}
 3995 0002 9FB0     		sub	sp, sp, #124
 3996 0004 1EAB     		add	r3, sp, #120
 3997 0006 43F8740D 		str	r0, [r3, #-116]!
 3998 000a 0C46     		mov	r4, r1
 3999 000c 1846     		mov	r0, r3
 4000 000e 0CA9     		add	r1, sp, #48
 4001 0010 0122     		movs	r2, #1
 4002 0012 FFF7FEFF 		bl	chk_mounted
 4003 0016 0028     		cmp	r0, #0
 4004 0018 79D1     		bne	.L919
 4005 001a 0C9B     		ldr	r3, [sp, #48]
 4006 001c 0CA8     		add	r0, sp, #48
 4007 001e 1593     		str	r3, [sp, #84]
 4008 0020 03AB     		add	r3, sp, #12
 4009 0022 1293     		str	r3, [sp, #72]
 4010 0024 3B4B     		ldr	r3, .L925
 4011 0026 0199     		ldr	r1, [sp, #4]
 4012 0028 1393     		str	r3, [sp, #76]
 4013 002a FFF7FEFF 		bl	follow_path
 4014 002e 0028     		cmp	r0, #0
 4015 0030 6DD1     		bne	.L919
 4016 0032 129B     		ldr	r3, [sp, #72]
 4017 0034 DB7A     		ldrb	r3, [r3, #11]	@ zero_extendqisi2
 4018 0036 9906     		lsls	r1, r3, #26
 4019 0038 5ED4     		bmi	.L913
 4020 003a 1199     		ldr	r1, [sp, #68]
 4021 003c 0029     		cmp	r1, #0
 4022 003e 59D0     		beq	.L924
 4023 0040 06A8     		add	r0, sp, #24
 4024 0042 0B31     		adds	r1, r1, #11
 4025 0044 1522     		movs	r2, #21
 4026 0046 FFF7FEFF 		bl	mem_cpy
 4027 004a 15A8     		add	r0, sp, #84
 4028 004c 0CA9     		add	r1, sp, #48
 4029 004e 2422     		movs	r2, #36
 4030 0050 FFF7FEFF 		bl	mem_cpy
 4031 0054 15A8     		add	r0, sp, #84
 4032 0056 2146     		mov	r1, r4
 4033 0058 FFF7FEFF 		bl	follow_path
 4034 005c 0028     		cmp	r0, #0
 4035 005e 47D0     		beq	.L914
 4036 0060 0428     		cmp	r0, #4
 4037 0062 54D1     		bne	.L919
 4038 0064 15A8     		add	r0, sp, #84
 4039 0066 FFF7FEFF 		bl	dir_register
 4040 006a 0028     		cmp	r0, #0
 4041 006c 4FD1     		bne	.L919
 4042 006e 1A9C     		ldr	r4, [sp, #104]
 4043 0070 1322     		movs	r2, #19
 4044 0072 04F10D00 		add	r0, r4, #13
 4045 0076 0DF11A01 		add	r1, sp, #26
 4046 007a FFF7FEFF 		bl	mem_cpy
 4047 007e 9DF81830 		ldrb	r3, [sp, #24]	@ zero_extendqisi2
 4048 0082 0C9D     		ldr	r5, [sp, #48]
 4049 0084 43F02003 		orr	r3, r3, #32
 4050 0088 E372     		strb	r3, [r4, #11]
 4051 008a 0123     		movs	r3, #1
 4052 008c 2B71     		strb	r3, [r5, #4]
 4053 008e 179B     		ldr	r3, [sp, #92]
 4054 0090 0E9A     		ldr	r2, [sp, #56]
 4055 0092 9A42     		cmp	r2, r3
 4056 0094 32D0     		beq	.L910
 4057 0096 E37A     		ldrb	r3, [r4, #11]	@ zero_extendqisi2
 4058 0098 DA06     		lsls	r2, r3, #27
 4059 009a 2FD5     		bpl	.L910
 4060 009c 2146     		mov	r1, r4
 4061 009e 2878     		ldrb	r0, [r5]	@ zero_extendqisi2
 4062 00a0 FFF7FEFF 		bl	ld_clust.isra.0
 4063 00a4 0146     		mov	r1, r0
 4064 00a6 2846     		mov	r0, r5
 4065 00a8 FFF7FEFF 		bl	clust2sect
 4066 00ac 0146     		mov	r1, r0
 4067 00ae 68B3     		cbz	r0, .L915
 4068 00b0 2846     		mov	r0, r5
 4069 00b2 FFF7FEFF 		bl	move_window
 4070 00b6 0C9B     		ldr	r3, [sp, #48]
 4071 00b8 48BB     		cbnz	r0, .L919
 4072 00ba 93F85920 		ldrb	r2, [r3, #89]	@ zero_extendqisi2
 4073 00be 2E2A     		cmp	r2, #46
 4074 00c0 1CD1     		bne	.L910
 4075 00c2 1A78     		ldrb	r2, [r3]	@ zero_extendqisi2
 4076 00c4 032A     		cmp	r2, #3
 4077 00c6 179A     		ldr	r2, [sp, #92]
 4078 00c8 02D1     		bne	.L908
 4079 00ca D96A     		ldr	r1, [r3, #44]
 4080 00cc 8A42     		cmp	r2, r1
 4081 00ce 00D0     		beq	.L909
 4082              	.L908:
 4083 00d0 1046     		mov	r0, r2
 4084              	.L909:
 4085 00d2 C0F30722 		ubfx	r2, r0, #8, #8
 4086 00d6 83F87200 		strb	r0, [r3, #114]
 4087 00da 000C     		lsrs	r0, r0, #16
 4088 00dc 83F87320 		strb	r2, [r3, #115]
 4089 00e0 83F86C00 		strb	r0, [r3, #108]
 4090 00e4 0122     		movs	r2, #1
 4091 00e6 000A     		lsrs	r0, r0, #8
 4092 00e8 83F86D00 		strb	r0, [r3, #109]
 4093 00ec 1A71     		strb	r2, [r3, #4]
 4094 00ee 05E0     		b	.L910
 4095              	.L914:
 4096 00f0 0820     		movs	r0, #8
 4097 00f2 0CE0     		b	.L919
 4098              	.L924:
 4099 00f4 0420     		movs	r0, #4
 4100 00f6 0AE0     		b	.L919
 4101              	.L913:
 4102 00f8 0620     		movs	r0, #6
 4103 00fa 08E0     		b	.L919
 4104              	.L910:
 4105 00fc 0CA8     		add	r0, sp, #48
 4106 00fe FFF7FEFF 		bl	dir_remove
 4107 0102 20B9     		cbnz	r0, .L919
 4108 0104 0C98     		ldr	r0, [sp, #48]
 4109 0106 FFF7FEFF 		bl	sync_fs
 4110 010a 00E0     		b	.L919
 4111              	.L915:
 4112 010c 0220     		movs	r0, #2
 4113              	.L919:
 4114 010e 1FB0     		add	sp, sp, #124
 4115              		@ sp needed
 4116 0110 30BD     		pop	{r4, r5, pc}
 4117              	.L926:
 4118 0112 00BF     		.align	2
 4119              	.L925:
 4120 0114 00000000 		.word	.LANCHOR4
 4122              		.section	.text.f_mkfs,"ax",%progbits
 4123              		.align	1
 4124              		.global	f_mkfs
 4125              		.thumb
 4126              		.thumb_func
 4128              	f_mkfs:
 4129              		@ args = 0, pretend = 0, frame = 24
 4130              		@ frame_needed = 0, uses_anonymous_args = 0
 4131 0000 2DE9F04F 		push	{r4, r5, r6, r7, r8, r9, r10, fp, lr}
 4132 0004 0F46     		mov	r7, r1
 4133 0006 87B0     		sub	sp, sp, #28
 4134 0008 1546     		mov	r5, r2
 4135 000a 0028     		cmp	r0, #0
 4136 000c 40F09282 		bne	.L968
 4137 0010 0129     		cmp	r1, #1
 4138 0012 00F29182 		bhi	.L970
 4139 0016 531E     		subs	r3, r2, #1
 4140 0018 1340     		ands	r3, r3, r2
 4141 001a 40F08D82 		bne	.L970
 4142 001e C64A     		ldr	r2, .L992
 4143 0020 1468     		ldr	r4, [r2]
 4144 0022 002C     		cmp	r4, #0
 4145 0024 00F08A82 		beq	.L971
 4146 0028 2370     		strb	r3, [r4]
 4147 002a FFF7FEFF 		bl	disk_initialize
 4148 002e C607     		lsls	r6, r0, #31
 4149 0030 00F18682 		bmi	.L972
 4150 0034 00F00403 		and	r3, r0, #4
 4151 0038 03F0FF00 		and	r0, r3, #255
 4152 003c 002B     		cmp	r3, #0
 4153 003e 40F08182 		bne	.L973
 4154 0042 0121     		movs	r1, #1
 4155 0044 05AA     		add	r2, sp, #20
 4156 0046 FFF7FEFF 		bl	disk_ioctl
 4157 004a 08B1     		cbz	r0, .L929
 4158              	.L930:
 4159 004c 0120     		movs	r0, #1
 4160 004e 8DE2     		b	.L985
 4161              	.L929:
 4162 0050 059B     		ldr	r3, [sp, #20]
 4163 0052 7F2B     		cmp	r3, #127
 4164 0054 FAD9     		bls	.L930
 4165 0056 002F     		cmp	r7, #0
 4166 0058 0CBF     		ite	eq
 4167 005a 4FF03F08 		moveq	r8, #63
 4168 005e 4FF00008 		movne	r8, #0
 4169 0062 C8EB0303 		rsb	r3, r8, r3
 4170 0066 0593     		str	r3, [sp, #20]
 4171 0068 6DB9     		cbnz	r5, .L932
 4172 006a 4FF4FA61 		mov	r1, #2000
 4173 006e B348     		ldr	r0, .L992+4
 4174 0070 B3FBF1F1 		udiv	r1, r3, r1
 4175              	.L933:
 4176 0074 30F81520 		ldrh	r2, [r0, r5, lsl #1]
 4177 0078 9142     		cmp	r1, r2
 4178 007a 01D2     		bcs	.L989
 4179 007c 0135     		adds	r5, r5, #1
 4180 007e F9E7     		b	.L933
 4181              	.L989:
 4182 0080 AF4A     		ldr	r2, .L992+8
 4183 0082 32F81550 		ldrh	r5, [r2, r5, lsl #1]
 4184              	.L932:
 4185 0086 5FEA5529 		lsrs	r9, r5, #9
 4186 008a 05D0     		beq	.L975
 4187 008c B9F1800F 		cmp	r9, #128
 4188 0090 28BF     		it	cs
 4189 0092 4FF08009 		movcs	r9, #128
 4190 0096 01E0     		b	.L936
 4191              	.L975:
 4192 0098 4FF00109 		mov	r9, #1
 4193              	.L936:
 4194 009c B3FBF9F6 		udiv	r6, r3, r9
 4195 00a0 40F6F572 		movw	r2, #4085
 4196 00a4 9642     		cmp	r6, r2
 4197 00a6 40F24F82 		bls	.L937
 4198 00aa 02F57042 		add	r2, r2, #61440
 4199 00ae 9642     		cmp	r6, r2
 4200 00b0 40F25882 		bls	.L990
 4201 00b4 8236     		adds	r6, r6, #130
 4202 00b6 B600     		lsls	r6, r6, #2
 4203 00b8 013E     		subs	r6, r6, #1
 4204 00ba 760A     		lsrs	r6, r6, #9
 4205 00bc 0325     		movs	r5, #3
 4206 00be 4FF0000A 		mov	r10, #0
 4207 00c2 4FF0200C 		mov	ip, #32
 4208              	.L966:
 4209 00c6 0CEB0801 		add	r1, ip, r8
 4210 00ca 0AEB060B 		add	fp, r10, r6
 4211 00ce 8B44     		add	fp, fp, r1
 4212 00d0 C8EB0902 		rsb	r2, r8, r9
 4213 00d4 5A44     		add	r2, r2, fp
 4214 00d6 9342     		cmp	r3, r2
 4215 00d8 0291     		str	r1, [sp, #8]
 4216 00da 01D2     		bcs	.L940
 4217              	.L946:
 4218 00dc 0E20     		movs	r0, #14
 4219 00de 45E2     		b	.L985
 4220              	.L940:
 4221 00e0 0020     		movs	r0, #0
 4222 00e2 0321     		movs	r1, #3
 4223 00e4 04AA     		add	r2, sp, #16
 4224 00e6 CDF804C0 		str	ip, [sp, #4]
 4225 00ea FFF7FEFF 		bl	disk_ioctl
 4226 00ee DDF804C0 		ldr	ip, [sp, #4]
 4227 00f2 20B9     		cbnz	r0, .L941
 4228 00f4 049B     		ldr	r3, [sp, #16]
 4229 00f6 013B     		subs	r3, r3, #1
 4230 00f8 B3F5004F 		cmp	r3, #32768
 4231 00fc 01D3     		bcc	.L942
 4232              	.L941:
 4233 00fe 0123     		movs	r3, #1
 4234 0100 0493     		str	r3, [sp, #16]
 4235              	.L942:
 4236 0102 049A     		ldr	r2, [sp, #16]
 4237 0104 032D     		cmp	r5, #3
 4238 0106 02F1FF33 		add	r3, r2, #-1
 4239 010a 5B44     		add	r3, r3, fp
 4240 010c C2F10002 		rsb	r2, r2, #0
 4241 0110 03EA0203 		and	r3, r3, r2
 4242 0114 CBEB0303 		rsb	r3, fp, r3
 4243 0118 0493     		str	r3, [sp, #16]
 4244 011a 04D1     		bne	.L943
 4245 011c 029A     		ldr	r2, [sp, #8]
 4246 011e 9C44     		add	ip, ip, r3
 4247 0120 1A44     		add	r2, r2, r3
 4248 0122 0292     		str	r2, [sp, #8]
 4249 0124 00E0     		b	.L944
 4250              	.L943:
 4251 0126 1E44     		add	r6, r6, r3
 4252              	.L944:
 4253 0128 059B     		ldr	r3, [sp, #20]
 4254 012a 022D     		cmp	r5, #2
 4255 012c CCEB0302 		rsb	r2, ip, r3
 4256 0130 C6EB0202 		rsb	r2, r6, r2
 4257 0134 CAEB0202 		rsb	r2, r10, r2
 4258 0138 B2FBF9F2 		udiv	r2, r2, r9
 4259 013c 0392     		str	r2, [sp, #12]
 4260 013e 05D1     		bne	.L945
 4261 0140 0399     		ldr	r1, [sp, #12]
 4262 0142 40F6F572 		movw	r2, #4085
 4263 0146 9142     		cmp	r1, r2
 4264 0148 C8D9     		bls	.L946
 4265 014a 0BE0     		b	.L947
 4266              	.L945:
 4267 014c 032D     		cmp	r5, #3
 4268 014e 07D1     		bne	.L948
 4269 0150 039A     		ldr	r2, [sp, #12]
 4270 0152 4FF6F573 		movw	r3, #65525
 4271 0156 9A42     		cmp	r2, r3
 4272 0158 C0D9     		bls	.L946
 4273 015a 4FF00C0B 		mov	fp, #12
 4274 015e 0BE0     		b	.L949
 4275              	.L948:
 4276 0160 022D     		cmp	r5, #2
 4277 0162 07D1     		bne	.L987
 4278              	.L947:
 4279 0164 B3F5803F 		cmp	r3, #65536
 4280 0168 2CBF     		ite	cs
 4281 016a 4FF0060B 		movcs	fp, #6
 4282 016e 4FF0040B 		movcc	fp, #4
 4283 0172 01E0     		b	.L949
 4284              	.L987:
 4285 0174 4FF0010B 		mov	fp, #1
 4286              	.L949:
 4287 0178 002F     		cmp	r7, #0
 4288 017a 4ED1     		bne	.L979
 4289 017c 04F13803 		add	r3, r4, #56
 4290 0180 1846     		mov	r0, r3
 4291 0182 3946     		mov	r1, r7
 4292 0184 4FF40072 		mov	r2, #512
 4293 0188 FFF7FEFF 		bl	mem_set
 4294 018c FE22     		movs	r2, #254
 4295 018e 84F8FB21 		strb	r2, [r4, #507]
 4296 0192 059A     		ldr	r2, [sp, #20]
 4297 0194 43F6C161 		movw	r1, #16065
 4298 0198 08EB0200 		add	r0, r8, r2
 4299 019c B0FBF1F1 		udiv	r1, r0, r1
 4300 01a0 84F8FD11 		strb	r1, [r4, #509]
 4301 01a4 0491     		str	r1, [sp, #16]
 4302 01a6 8808     		lsrs	r0, r1, #2
 4303 01a8 3F21     		movs	r1, #63
 4304 01aa 84F8FE11 		strb	r1, [r4, #510]
 4305 01ae C2F30721 		ubfx	r1, r2, #8, #8
 4306 01b2 84F80222 		strb	r2, [r4, #514]
 4307 01b6 84F80312 		strb	r1, [r4, #515]
 4308 01ba 110C     		lsrs	r1, r2, #16
 4309 01bc 120E     		lsrs	r2, r2, #24
 4310 01be 84F80522 		strb	r2, [r4, #517]
 4311 01c2 5522     		movs	r2, #85
 4312 01c4 4FF0010E 		mov	lr, #1
 4313 01c8 84F83622 		strb	r2, [r4, #566]
 4314 01cc 40F03F00 		orr	r0, r0, #63
 4315 01d0 AA22     		movs	r2, #170
 4316 01d2 84F8FC01 		strb	r0, [r4, #508]
 4317 01d6 84F80412 		strb	r1, [r4, #516]
 4318 01da 84F83722 		strb	r2, [r4, #567]
 4319 01de 84F8F7E1 		strb	lr, [r4, #503]
 4320 01e2 84F8F8E1 		strb	lr, [r4, #504]
 4321 01e6 84F8F971 		strb	r7, [r4, #505]
 4322 01ea 84F8FAB1 		strb	fp, [r4, #506]
 4323 01ee 84F8FF71 		strb	r7, [r4, #511]
 4324 01f2 84F80072 		strb	r7, [r4, #512]
 4325 01f6 84F80172 		strb	r7, [r4, #513]
 4326 01fa 1946     		mov	r1, r3
 4327 01fc 3846     		mov	r0, r7
 4328 01fe 3A46     		mov	r2, r7
 4329 0200 7346     		mov	r3, lr
 4330 0202 CDF804C0 		str	ip, [sp, #4]
 4331 0206 FFF7FEFF 		bl	disk_write
 4332 020a DDF804C0 		ldr	ip, [sp, #4]
 4333 020e 0028     		cmp	r0, #0
 4334 0210 7FF41CAF 		bne	.L930
 4335 0214 4FF0F80B 		mov	fp, #248
 4336 0218 01E0     		b	.L950
 4337              	.L979:
 4338 021a 4FF0F00B 		mov	fp, #240
 4339              	.L950:
 4340 021e 04F13807 		add	r7, r4, #56
 4341 0222 3846     		mov	r0, r7
 4342 0224 0021     		movs	r1, #0
 4343 0226 4FF40072 		mov	r2, #512
 4344 022a FFF7FEFF 		bl	mem_set
 4345 022e 0B22     		movs	r2, #11
 4346 0230 3846     		mov	r0, r7
 4347 0232 4449     		ldr	r1, .L992+12
 4348 0234 FFF7FEFF 		bl	mem_cpy
 4349 0238 0023     		movs	r3, #0
 4350 023a 84F84330 		strb	r3, [r4, #67]
 4351 023e 84F84930 		strb	r3, [r4, #73]
 4352 0242 032D     		cmp	r5, #3
 4353 0244 18BF     		it	ne
 4354 0246 0223     		movne	r3, #2
 4355 0248 84F84A30 		strb	r3, [r4, #74]
 4356 024c 059B     		ldr	r3, [sp, #20]
 4357 024e 0222     		movs	r2, #2
 4358 0250 84F84420 		strb	r2, [r4, #68]
 4359 0254 84F846C0 		strb	ip, [r4, #70]
 4360 0258 0122     		movs	r2, #1
 4361 025a CCF3072C 		ubfx	ip, ip, #8, #8
 4362 025e B3F5803F 		cmp	r3, #65536
 4363 0262 84F84820 		strb	r2, [r4, #72]
 4364 0266 84F84590 		strb	r9, [r4, #69]
 4365 026a 84F847C0 		strb	ip, [r4, #71]
 4366 026e 9AB2     		uxth	r2, r3
 4367 0270 05D2     		bcs	.L952
 4368 0272 120A     		lsrs	r2, r2, #8
 4369 0274 84F84B30 		strb	r3, [r4, #75]
 4370 0278 84F84C20 		strb	r2, [r4, #76]
 4371 027c 0AE0     		b	.L953
 4372              	.L952:
 4373 027e 120A     		lsrs	r2, r2, #8
 4374 0280 84F85830 		strb	r3, [r4, #88]
 4375 0284 84F85920 		strb	r2, [r4, #89]
 4376 0288 1A0C     		lsrs	r2, r3, #16
 4377 028a 1B0E     		lsrs	r3, r3, #24
 4378 028c 84F85A20 		strb	r2, [r4, #90]
 4379 0290 84F85B30 		strb	r3, [r4, #91]
 4380              	.L953:
 4381 0294 3F23     		movs	r3, #63
 4382 0296 84F85030 		strb	r3, [r4, #80]
 4383 029a FF22     		movs	r2, #255
 4384 029c 0023     		movs	r3, #0
 4385 029e 84F85130 		strb	r3, [r4, #81]
 4386 02a2 84F85220 		strb	r2, [r4, #82]
 4387 02a6 84F85330 		strb	r3, [r4, #83]
 4388 02aa 84F85530 		strb	r3, [r4, #85]
 4389 02ae 84F85630 		strb	r3, [r4, #86]
 4390 02b2 84F85730 		strb	r3, [r4, #87]
 4391 02b6 84F84DB0 		strb	fp, [r4, #77]
 4392 02ba 84F85480 		strb	r8, [r4, #84]
 4393 02be 0193     		str	r3, [sp, #4]
 4394 02c0 FFF7FEFF 		bl	get_fattime
 4395 02c4 032D     		cmp	r5, #3
 4396 02c6 0490     		str	r0, [sp, #16]
 4397 02c8 82B2     		uxth	r2, r0
 4398 02ca 019B     		ldr	r3, [sp, #4]
 4399 02cc 3ED1     		bne	.L954
 4400 02ce 120A     		lsrs	r2, r2, #8
 4401 02d0 84F87C20 		strb	r2, [r4, #124]
 4402 02d4 020C     		lsrs	r2, r0, #16
 4403 02d6 84F87D20 		strb	r2, [r4, #125]
 4404 02da C6F30722 		ubfx	r2, r6, #8, #8
 4405 02de 84F85D20 		strb	r2, [r4, #93]
 4406 02e2 320C     		lsrs	r2, r6, #16
 4407 02e4 84F85E20 		strb	r2, [r4, #94]
 4408 02e8 320E     		lsrs	r2, r6, #24
 4409 02ea 84F85F20 		strb	r2, [r4, #95]
 4410 02ee 0222     		movs	r2, #2
 4411 02f0 84F86420 		strb	r2, [r4, #100]
 4412 02f4 84F86530 		strb	r3, [r4, #101]
 4413 02f8 0122     		movs	r2, #1
 4414 02fa 84F86630 		strb	r3, [r4, #102]
 4415 02fe 84F86730 		strb	r3, [r4, #103]
 4416 0302 84F86930 		strb	r3, [r4, #105]
 4417 0306 84F86B30 		strb	r3, [r4, #107]
 4418 030a 8023     		movs	r3, #128
 4419 030c 84F87B00 		strb	r0, [r4, #123]
 4420 0310 84F86820 		strb	r2, [r4, #104]
 4421 0314 000E     		lsrs	r0, r0, #24
 4422 0316 0622     		movs	r2, #6
 4423 0318 84F87830 		strb	r3, [r4, #120]
 4424 031c 2923     		movs	r3, #41
 4425 031e 84F87E00 		strb	r0, [r4, #126]
 4426 0322 84F85C60 		strb	r6, [r4, #92]
 4427 0326 84F86A20 		strb	r2, [r4, #106]
 4428 032a 84F87A30 		strb	r3, [r4, #122]
 4429 032e 04F17F00 		add	r0, r4, #127
 4430 0332 0549     		ldr	r1, .L992+16
 4431 0334 24E0     		b	.L988
 4432              	.L993:
 4433 0336 00BF     		.align	2
 4434              	.L992:
 4435 0338 00000000 		.word	.LANCHOR1
 4436 033c 00000000 		.word	.LANCHOR5
 4437 0340 00000000 		.word	.LANCHOR6
 4438 0344 10000000 		.word	.LC2
 4439 0348 1C000000 		.word	.LC3
 4440              	.L954:
 4441 034c 030C     		lsrs	r3, r0, #16
 4442 034e 84F86130 		strb	r3, [r4, #97]
 4443 0352 C6F30723 		ubfx	r3, r6, #8, #8
 4444 0356 84F84F30 		strb	r3, [r4, #79]
 4445 035a 8023     		movs	r3, #128
 4446 035c 84F85F00 		strb	r0, [r4, #95]
 4447 0360 120A     		lsrs	r2, r2, #8
 4448 0362 000E     		lsrs	r0, r0, #24
 4449 0364 84F85C30 		strb	r3, [r4, #92]
 4450 0368 8249     		ldr	r1, .L994
 4451 036a 2923     		movs	r3, #41
 4452 036c 84F86200 		strb	r0, [r4, #98]
 4453 0370 84F86020 		strb	r2, [r4, #96]
 4454 0374 84F84E60 		strb	r6, [r4, #78]
 4455 0378 84F85E30 		strb	r3, [r4, #94]
 4456 037c 04F16300 		add	r0, r4, #99
 4457              	.L988:
 4458 0380 1322     		movs	r2, #19
 4459 0382 FFF7FEFF 		bl	mem_cpy
 4460 0386 5523     		movs	r3, #85
 4461 0388 84F83632 		strb	r3, [r4, #566]
 4462 038c AA23     		movs	r3, #170
 4463 038e 84F83732 		strb	r3, [r4, #567]
 4464 0392 0020     		movs	r0, #0
 4465 0394 3946     		mov	r1, r7
 4466 0396 4246     		mov	r2, r8
 4467 0398 0123     		movs	r3, #1
 4468 039a FFF7FEFF 		bl	disk_write
 4469 039e 0028     		cmp	r0, #0
 4470 03a0 7FF454AE 		bne	.L930
 4471 03a4 032D     		cmp	r5, #3
 4472 03a6 05D1     		bne	.L956
 4473 03a8 3946     		mov	r1, r7
 4474 03aa 08F10602 		add	r2, r8, #6
 4475 03ae 0123     		movs	r3, #1
 4476 03b0 FFF7FEFF 		bl	disk_write
 4477              	.L956:
 4478 03b4 3846     		mov	r0, r7
 4479 03b6 0021     		movs	r1, #0
 4480 03b8 4FF40072 		mov	r2, #512
 4481 03bc FFF7FEFF 		bl	mem_set
 4482 03c0 032D     		cmp	r5, #3
 4483 03c2 12D0     		beq	.L957
 4484 03c4 6C4B     		ldr	r3, .L994+4
 4485 03c6 012D     		cmp	r5, #1
 4486 03c8 18BF     		it	ne
 4487 03ca 6FF0FF03 		mvnne	r3, #255
 4488 03ce 43EA0B03 		orr	r3, r3, fp
 4489 03d2 FF22     		movs	r2, #255
 4490 03d4 0493     		str	r3, [sp, #16]
 4491 03d6 84F83830 		strb	r3, [r4, #56]
 4492 03da 1B0E     		lsrs	r3, r3, #24
 4493 03dc 84F83920 		strb	r2, [r4, #57]
 4494 03e0 84F83A20 		strb	r2, [r4, #58]
 4495 03e4 84F83B30 		strb	r3, [r4, #59]
 4496 03e8 1CE0     		b	.L959
 4497              	.L957:
 4498 03ea 6BF0FF03 		orn	r3, fp, #255
 4499 03ee 0493     		str	r3, [sp, #16]
 4500 03f0 84F83830 		strb	r3, [r4, #56]
 4501 03f4 FF23     		movs	r3, #255
 4502 03f6 84F83930 		strb	r3, [r4, #57]
 4503 03fa 84F83A30 		strb	r3, [r4, #58]
 4504 03fe 84F83B30 		strb	r3, [r4, #59]
 4505 0402 84F83C30 		strb	r3, [r4, #60]
 4506 0406 84F83D30 		strb	r3, [r4, #61]
 4507 040a 84F83E30 		strb	r3, [r4, #62]
 4508 040e 84F83F30 		strb	r3, [r4, #63]
 4509 0412 84F84030 		strb	r3, [r4, #64]
 4510 0416 84F84130 		strb	r3, [r4, #65]
 4511 041a 84F84230 		strb	r3, [r4, #66]
 4512 041e 0F23     		movs	r3, #15
 4513 0420 84F84330 		strb	r3, [r4, #67]
 4514              	.L959:
 4515 0424 029B     		ldr	r3, [sp, #8]
 4516 0426 3946     		mov	r1, r7
 4517 0428 1A46     		mov	r2, r3
 4518 042a 03F1010B 		add	fp, r3, #1
 4519 042e 0020     		movs	r0, #0
 4520 0430 0123     		movs	r3, #1
 4521 0432 FFF7FEFF 		bl	disk_write
 4522 0436 0146     		mov	r1, r0
 4523 0438 0028     		cmp	r0, #0
 4524 043a 7FF407AE 		bne	.L930
 4525 043e 3846     		mov	r0, r7
 4526 0440 4FF40072 		mov	r2, #512
 4527 0444 FFF7FEFF 		bl	mem_set
 4528 0448 0123     		movs	r3, #1
 4529 044a 0493     		str	r3, [sp, #16]
 4530              	.L960:
 4531 044c 049B     		ldr	r3, [sp, #16]
 4532 044e B342     		cmp	r3, r6
 4533 0450 13D2     		bcs	.L991
 4534 0452 0BF1010C 		add	ip, fp, #1
 4535 0456 0020     		movs	r0, #0
 4536 0458 3946     		mov	r1, r7
 4537 045a 5A46     		mov	r2, fp
 4538 045c 0123     		movs	r3, #1
 4539 045e CDF804C0 		str	ip, [sp, #4]
 4540 0462 FFF7FEFF 		bl	disk_write
 4541 0466 DDF804C0 		ldr	ip, [sp, #4]
 4542 046a 0028     		cmp	r0, #0
 4543 046c 7FF4EEAD 		bne	.L930
 4544 0470 049B     		ldr	r3, [sp, #16]
 4545 0472 E346     		mov	fp, ip
 4546 0474 0133     		adds	r3, r3, #1
 4547 0476 0493     		str	r3, [sp, #16]
 4548 0478 E8E7     		b	.L960
 4549              	.L991:
 4550 047a 032D     		cmp	r5, #3
 4551 047c 08BF     		it	eq
 4552 047e CA46     		moveq	r10, r9
 4553 0480 DA44     		add	r10, r10, fp
 4554              	.L964:
 4555 0482 0020     		movs	r0, #0
 4556 0484 3946     		mov	r1, r7
 4557 0486 5A46     		mov	r2, fp
 4558 0488 0123     		movs	r3, #1
 4559 048a FFF7FEFF 		bl	disk_write
 4560 048e 0BF10109 		add	r9, fp, #1
 4561 0492 0646     		mov	r6, r0
 4562 0494 0028     		cmp	r0, #0
 4563 0496 7FF4D9AD 		bne	.L930
 4564 049a CA45     		cmp	r10, r9
 4565 049c 01D0     		beq	.L963
 4566 049e CB46     		mov	fp, r9
 4567 04a0 EFE7     		b	.L964
 4568              	.L963:
 4569 04a2 032D     		cmp	r5, #3
 4570 04a4 3DD1     		bne	.L965
 4571 04a6 7221     		movs	r1, #114
 4572 04a8 5223     		movs	r3, #82
 4573 04aa 84F81C12 		strb	r1, [r4, #540]
 4574 04ae 84F81D12 		strb	r1, [r4, #541]
 4575 04b2 0399     		ldr	r1, [sp, #12]
 4576 04b4 84F83830 		strb	r3, [r4, #56]
 4577 04b8 84F83930 		strb	r3, [r4, #57]
 4578 04bc 6123     		movs	r3, #97
 4579 04be 4122     		movs	r2, #65
 4580 04c0 84F83A30 		strb	r3, [r4, #58]
 4581 04c4 84F81F32 		strb	r3, [r4, #543]
 4582 04c8 4B1E     		subs	r3, r1, #1
 4583 04ca 84F83B20 		strb	r2, [r4, #59]
 4584 04ce 84F81E22 		strb	r2, [r4, #542]
 4585 04d2 C3F30722 		ubfx	r2, r3, #8, #8
 4586 04d6 84F82032 		strb	r3, [r4, #544]
 4587 04da 84F82122 		strb	r2, [r4, #545]
 4588 04de 1A0C     		lsrs	r2, r3, #16
 4589 04e0 1B0E     		lsrs	r3, r3, #24
 4590 04e2 84F82332 		strb	r3, [r4, #547]
 4591 04e6 0223     		movs	r3, #2
 4592 04e8 84F82432 		strb	r3, [r4, #548]
 4593 04ec 5523     		movs	r3, #85
 4594 04ee 84F83632 		strb	r3, [r4, #566]
 4595 04f2 AA23     		movs	r3, #170
 4596 04f4 84F82222 		strb	r2, [r4, #546]
 4597 04f8 84F83732 		strb	r3, [r4, #567]
 4598 04fc 3946     		mov	r1, r7
 4599 04fe 08F10102 		add	r2, r8, #1
 4600 0502 0123     		movs	r3, #1
 4601 0504 84F82502 		strb	r0, [r4, #549]
 4602 0508 84F82602 		strb	r0, [r4, #550]
 4603 050c 84F82702 		strb	r0, [r4, #551]
 4604 0510 FFF7FEFF 		bl	disk_write
 4605 0514 3046     		mov	r0, r6
 4606 0516 3946     		mov	r1, r7
 4607 0518 08F10702 		add	r2, r8, #7
 4608 051c 0123     		movs	r3, #1
 4609 051e FFF7FEFF 		bl	disk_write
 4610              	.L965:
 4611 0522 0020     		movs	r0, #0
 4612 0524 0146     		mov	r1, r0
 4613 0526 0246     		mov	r2, r0
 4614 0528 FFF7FEFF 		bl	disk_ioctl
 4615 052c 0030     		adds	r0, r0, #0
 4616 052e 18BF     		it	ne
 4617 0530 0120     		movne	r0, #1
 4618 0532 1BE0     		b	.L985
 4619              	.L968:
 4620 0534 0B20     		movs	r0, #11
 4621 0536 19E0     		b	.L985
 4622              	.L970:
 4623 0538 1320     		movs	r0, #19
 4624 053a 17E0     		b	.L985
 4625              	.L971:
 4626 053c 0C20     		movs	r0, #12
 4627 053e 15E0     		b	.L985
 4628              	.L972:
 4629 0540 0320     		movs	r0, #3
 4630 0542 13E0     		b	.L985
 4631              	.L973:
 4632 0544 0A20     		movs	r0, #10
 4633 0546 11E0     		b	.L985
 4634              	.L937:
 4635 0548 0322     		movs	r2, #3
 4636 054a 5643     		muls	r6, r2, r6
 4637 054c 0136     		adds	r6, r6, #1
 4638 054e 7608     		lsrs	r6, r6, #1
 4639 0550 1644     		add	r6, r6, r2
 4640 0552 0125     		movs	r5, #1
 4641              	.L967:
 4642 0554 06F2FF16 		addw	r6, r6, #511
 4643 0558 760A     		lsrs	r6, r6, #9
 4644 055a 4FF0200A 		mov	r10, #32
 4645 055e 4FF0010C 		mov	ip, #1
 4646 0562 B0E5     		b	.L966
 4647              	.L990:
 4648 0564 0236     		adds	r6, r6, #2
 4649 0566 7600     		lsls	r6, r6, #1
 4650 0568 0225     		movs	r5, #2
 4651 056a F3E7     		b	.L967
 4652              	.L985:
 4653 056c 07B0     		add	sp, sp, #28
 4654              		@ sp needed
 4655 056e BDE8F08F 		pop	{r4, r5, r6, r7, r8, r9, r10, fp, pc}
 4656              	.L995:
 4657 0572 00BF     		.align	2
 4658              	.L994:
 4659 0574 30000000 		.word	.LC4
 4660 0578 00FFFF00 		.word	16776960
 4662              		.section	.text.f_gets,"ax",%progbits
 4663              		.align	1
 4664              		.global	f_gets
 4665              		.thumb
 4666              		.thumb_func
 4668              	f_gets:
 4669              		@ args = 0, pretend = 0, frame = 8
 4670              		@ frame_needed = 0, uses_anonymous_args = 0
 4671 0000 2DE9F341 		push	{r0, r1, r4, r5, r6, r7, r8, lr}
 4672 0004 0646     		mov	r6, r0
 4673 0006 9046     		mov	r8, r2
 4674 0008 0546     		mov	r5, r0
 4675 000a 0024     		movs	r4, #0
 4676 000c 4F1E     		subs	r7, r1, #1
 4677              	.L997:
 4678 000e BC42     		cmp	r4, r7
 4679 0010 0FDA     		bge	.L998
 4680 0012 01AB     		add	r3, sp, #4
 4681 0014 4046     		mov	r0, r8
 4682 0016 6946     		mov	r1, sp
 4683 0018 0122     		movs	r2, #1
 4684 001a FFF7FEFF 		bl	f_read
 4685 001e 019B     		ldr	r3, [sp, #4]
 4686 0020 012B     		cmp	r3, #1
 4687 0022 06D1     		bne	.L998
 4688 0024 9DF80030 		ldrb	r3, [sp]	@ zero_extendqisi2
 4689 0028 0134     		adds	r4, r4, #1
 4690 002a 0A2B     		cmp	r3, #10
 4691 002c 05F8013B 		strb	r3, [r5], #1
 4692 0030 EDD1     		bne	.L997
 4693              	.L998:
 4694 0032 0023     		movs	r3, #0
 4695 0034 9C42     		cmp	r4, r3
 4696 0036 14BF     		ite	ne
 4697 0038 3046     		movne	r0, r6
 4698 003a 1846     		moveq	r0, r3
 4699 003c 2B70     		strb	r3, [r5]
 4700 003e 02B0     		add	sp, sp, #8
 4701              		@ sp needed
 4702 0040 BDE8F081 		pop	{r4, r5, r6, r7, r8, pc}
 4704              		.section	.text.f_putc,"ax",%progbits
 4705              		.align	1
 4706              		.global	f_putc
 4707              		.thumb
 4708              		.thumb_func
 4710              	f_putc:
 4711              		@ args = 0, pretend = 0, frame = 8
 4712              		@ frame_needed = 0, uses_anonymous_args = 0
 4713 0000 07B5     		push	{r0, r1, r2, lr}
 4714 0002 02AB     		add	r3, sp, #8
 4715 0004 03F8080D 		strb	r0, [r3, #-8]!
 4716 0008 0122     		movs	r2, #1
 4717 000a 0846     		mov	r0, r1
 4718 000c 01AB     		add	r3, sp, #4
 4719 000e 6946     		mov	r1, sp
 4720 0010 FFF7FEFF 		bl	f_write
 4721 0014 0198     		ldr	r0, [sp, #4]
 4722 0016 0128     		cmp	r0, #1
 4723 0018 14BF     		ite	ne
 4724 001a 4FF0FF30 		movne	r0, #-1
 4725 001e 0120     		moveq	r0, #1
 4726 0020 03B0     		add	sp, sp, #12
 4727              		@ sp needed
 4728 0022 5DF804FB 		ldr	pc, [sp], #4
 4730              		.section	.text.f_puts,"ax",%progbits
 4731              		.align	1
 4732              		.global	f_puts
 4733              		.thumb
 4734              		.thumb_func
 4736              	f_puts:
 4737              		@ args = 0, pretend = 0, frame = 0
 4738              		@ frame_needed = 0, uses_anonymous_args = 0
 4739 0000 70B5     		push	{r4, r5, r6, lr}
 4740 0002 0546     		mov	r5, r0
 4741 0004 0E46     		mov	r6, r1
 4742 0006 0024     		movs	r4, #0
 4743              	.L1009:
 4744 0008 285D     		ldrb	r0, [r5, r4]	@ zero_extendqisi2
 4745 000a 30B1     		cbz	r0, .L1015
 4746 000c 3146     		mov	r1, r6
 4747 000e FFF7FEFF 		bl	f_putc
 4748 0012 431C     		adds	r3, r0, #1
 4749 0014 02D0     		beq	.L1010
 4750 0016 0134     		adds	r4, r4, #1
 4751 0018 F6E7     		b	.L1009
 4752              	.L1015:
 4753 001a 2046     		mov	r0, r4
 4754              	.L1010:
 4755 001c 70BD     		pop	{r4, r5, r6, pc}
 4757              		.section	.text.f_printf,"ax",%progbits
 4758              		.align	1
 4759              		.global	f_printf
 4760              		.thumb
 4761              		.thumb_func
 4763              	f_printf:
 4764              		@ args = 4, pretend = 12, frame = 32
 4765              		@ frame_needed = 0, uses_anonymous_args = 1
 4766 0000 0EB4     		push	{r1, r2, r3}
 4767 0002 2DE9F04F 		push	{r4, r5, r6, r7, r8, r9, r10, fp, lr}
 4768 0006 88B0     		sub	sp, sp, #32
 4769 0008 11AB     		add	r3, sp, #68
 4770 000a 53F8042B 		ldr	r2, [r3], #4
 4771 000e 0546     		mov	r5, r0
 4772 0010 0020     		movs	r0, #0
 4773 0012 0393     		str	r3, [sp, #12]
 4774 0014 0746     		mov	r7, r0
 4775 0016 0DF11008 		add	r8, sp, #16
 4776              	.L1059:
 4777 001a 1378     		ldrb	r3, [r2]	@ zero_extendqisi2
 4778 001c 541C     		adds	r4, r2, #1
 4779 001e 002B     		cmp	r3, #0
 4780 0020 00F01381 		beq	.L1017
 4781 0024 252B     		cmp	r3, #37
 4782 0026 0AD0     		beq	.L1018
 4783 0028 1846     		mov	r0, r3
 4784 002a 2946     		mov	r1, r5
 4785 002c FFF7FEFF 		bl	f_putc
 4786 0030 B0F1FF3F 		cmp	r0, #-1
 4787 0034 0CBF     		ite	eq
 4788 0036 4FF0FF30 		moveq	r0, #-1
 4789 003a 0120     		movne	r0, #1
 4790 003c 00E1     		b	.L1019
 4791              	.L1018:
 4792 003e 5378     		ldrb	r3, [r2, #1]	@ zero_extendqisi2
 4793 0040 302B     		cmp	r3, #48
 4794 0042 03D1     		bne	.L1020
 4795 0044 D41C     		adds	r4, r2, #3
 4796 0046 9378     		ldrb	r3, [r2, #2]	@ zero_extendqisi2
 4797 0048 0122     		movs	r2, #1
 4798 004a 07E0     		b	.L1021
 4799              	.L1020:
 4800 004c 2D2B     		cmp	r3, #45
 4801 004e 02D0     		beq	.L1022
 4802 0050 941C     		adds	r4, r2, #2
 4803 0052 0022     		movs	r2, #0
 4804 0054 02E0     		b	.L1021
 4805              	.L1022:
 4806 0056 D41C     		adds	r4, r2, #3
 4807 0058 9378     		ldrb	r3, [r2, #2]	@ zero_extendqisi2
 4808 005a 0222     		movs	r2, #2
 4809              	.L1021:
 4810 005c 0026     		movs	r6, #0
 4811 005e 4FF00A0C 		mov	ip, #10
 4812              	.L1023:
 4813 0062 A3F13001 		sub	r1, r3, #48
 4814 0066 C9B2     		uxtb	r1, r1
 4815 0068 0929     		cmp	r1, #9
 4816 006a 05D8     		bhi	.L1106
 4817 006c 0CFB0636 		mla	r6, ip, r6, r3
 4818 0070 14F8013B 		ldrb	r3, [r4], #1	@ zero_extendqisi2
 4819 0074 303E     		subs	r6, r6, #48
 4820 0076 F4E7     		b	.L1023
 4821              	.L1106:
 4822 0078 03F0DF0C 		and	ip, r3, #223
 4823 007c BCF14C0F 		cmp	ip, #76
 4824 0080 2146     		mov	r1, r4
 4825 0082 03D1     		bne	.L1025
 4826 0084 0B78     		ldrb	r3, [r1]	@ zero_extendqisi2
 4827 0086 42F00402 		orr	r2, r2, #4
 4828 008a 0134     		adds	r4, r4, #1
 4829              	.L1025:
 4830 008c 002B     		cmp	r3, #0
 4831 008e 00F0DC80 		beq	.L1017
 4832 0092 A3F16101 		sub	r1, r3, #97
 4833 0096 C9B2     		uxtb	r1, r1
 4834 0098 1929     		cmp	r1, #25
 4835 009a 9ABF     		itte	ls
 4836 009c A3F12001 		subls	r1, r3, #32
 4837 00a0 C9B2     		uxtbls	r1, r1
 4838 00a2 1946     		movhi	r1, r3
 4839 00a4 4F29     		cmp	r1, #79
 4840 00a6 4FD0     		beq	.L1062
 4841 00a8 06D8     		bhi	.L1029
 4842 00aa 4329     		cmp	r1, #67
 4843 00ac 3CD0     		beq	.L1030
 4844 00ae 4429     		cmp	r1, #68
 4845 00b0 10D0     		beq	.L1031
 4846 00b2 4229     		cmp	r1, #66
 4847 00b4 45D0     		beq	.L1032
 4848 00b6 3FE0     		b	.L1027
 4849              	.L1029:
 4850 00b8 5529     		cmp	r1, #85
 4851 00ba 0BD0     		beq	.L1031
 4852 00bc 5829     		cmp	r1, #88
 4853 00be 38D0     		beq	.L1033
 4854 00c0 5329     		cmp	r1, #83
 4855 00c2 39D1     		bne	.L1027
 4856 00c4 039B     		ldr	r3, [sp, #12]
 4857 00c6 4FF00009 		mov	r9, #0
 4858 00ca 191D     		adds	r1, r3, #4
 4859 00cc 0391     		str	r1, [sp, #12]
 4860 00ce D3F800B0 		ldr	fp, [r3]
 4861 00d2 02E0     		b	.L1035
 4862              	.L1031:
 4863 00d4 4FF00A0E 		mov	lr, #10
 4864 00d8 38E0     		b	.L1028
 4865              	.L1035:
 4866 00da 1BF80930 		ldrb	r3, [fp, r9]	@ zero_extendqisi2
 4867 00de 13B1     		cbz	r3, .L1107
 4868 00e0 09F10109 		add	r9, r9, #1
 4869 00e4 F9E7     		b	.L1035
 4870              	.L1107:
 4871 00e6 02F00202 		and	r2, r2, #2
 4872 00ea 02F0FF0A 		and	r10, r2, #255
 4873 00ee 52B9     		cbnz	r2, .L1063
 4874              	.L1101:
 4875 00f0 4B46     		mov	r3, r9
 4876 00f2 B342     		cmp	r3, r6
 4877 00f4 09F10109 		add	r9, r9, #1
 4878 00f8 06D2     		bcs	.L1037
 4879 00fa 2020     		movs	r0, #32
 4880 00fc 2946     		mov	r1, r5
 4881 00fe FFF7FEFF 		bl	f_putc
 4882 0102 8244     		add	r10, r10, r0
 4883 0104 F4E7     		b	.L1101
 4884              	.L1063:
 4885 0106 9A46     		mov	r10, r3
 4886              	.L1037:
 4887 0108 5846     		mov	r0, fp
 4888 010a 2946     		mov	r1, r5
 4889 010c FFF7FEFF 		bl	f_puts
 4890 0110 8244     		add	r10, r10, r0
 4891              	.L1040:
 4892 0112 B145     		cmp	r9, r6
 4893 0114 80F08E80 		bcs	.L1102
 4894 0118 2020     		movs	r0, #32
 4895 011a 2946     		mov	r1, r5
 4896 011c FFF7FEFF 		bl	f_putc
 4897 0120 09F10109 		add	r9, r9, #1
 4898 0124 8244     		add	r10, r10, r0
 4899 0126 F4E7     		b	.L1040
 4900              	.L1030:
 4901 0128 039B     		ldr	r3, [sp, #12]
 4902 012a 1A1D     		adds	r2, r3, #4
 4903 012c 0392     		str	r2, [sp, #12]
 4904 012e 1878     		ldrb	r0, [r3]	@ zero_extendqisi2
 4905 0130 03E0     		b	.L1103
 4906              	.L1033:
 4907 0132 4FF0100E 		mov	lr, #16
 4908 0136 09E0     		b	.L1028
 4909              	.L1027:
 4910 0138 1846     		mov	r0, r3
 4911              	.L1103:
 4912 013a 2946     		mov	r1, r5
 4913 013c FFF7FEFF 		bl	f_putc
 4914 0140 7EE0     		b	.L1019
 4915              	.L1032:
 4916 0142 4FF0020E 		mov	lr, #2
 4917 0146 01E0     		b	.L1028
 4918              	.L1062:
 4919 0148 4FF0080E 		mov	lr, #8
 4920              	.L1028:
 4921 014c 12F0040F 		tst	r2, #4
 4922 0150 0398     		ldr	r0, [sp, #12]
 4923 0152 06D0     		beq	.L1042
 4924 0154 00F1040C 		add	ip, r0, #4
 4925 0158 CDF80CC0 		str	ip, [sp, #12]
 4926 015c 0068     		ldr	r0, [r0]
 4927 015e 4429     		cmp	r1, #68
 4928 0160 04E0     		b	.L1105
 4929              	.L1042:
 4930 0162 4429     		cmp	r1, #68
 4931 0164 00F10401 		add	r1, r0, #4
 4932 0168 0068     		ldr	r0, [r0]
 4933 016a 0391     		str	r1, [sp, #12]
 4934              	.L1105:
 4935 016c 04D1     		bne	.L1044
 4936 016e 0028     		cmp	r0, #0
 4937 0170 BCBF     		itt	lt
 4938 0172 4042     		rsblt	r0, r0, #0
 4939 0174 42F00802 		orrlt	r2, r2, #8
 4940              	.L1044:
 4941 0178 0021     		movs	r1, #0
 4942              	.L1049:
 4943 017a B0FBFEFA 		udiv	r10, r0, lr
 4944 017e 0EFB1A00 		mls	r0, lr, r10, r0
 4945 0182 5FFA80FC 		uxtb	ip, r0
 4946 0186 BCF1090F 		cmp	ip, #9
 4947 018a 5046     		mov	r0, r10
 4948 018c 08D9     		bls	.L1046
 4949 018e 782B     		cmp	r3, #120
 4950 0190 14BF     		ite	ne
 4951 0192 4FF00709 		movne	r9, #7
 4952 0196 4FF02709 		moveq	r9, #39
 4953 019a CC44     		add	ip, ip, r9
 4954 019c 5FFA8CFC 		uxtb	ip, ip
 4955              	.L1046:
 4956 01a0 0CF1300C 		add	ip, ip, #48
 4957 01a4 01F10109 		add	r9, r1, #1
 4958 01a8 08F801C0 		strb	ip, [r8, r1]
 4959 01ac BAF1000F 		cmp	r10, #0
 4960 01b0 05D0     		beq	.L1048
 4961 01b2 B9F1100F 		cmp	r9, #16
 4962 01b6 01D0     		beq	.L1065
 4963 01b8 4946     		mov	r1, r9
 4964 01ba DEE7     		b	.L1049
 4965              	.L1065:
 4966 01bc 0F21     		movs	r1, #15
 4967              	.L1048:
 4968 01be 1007     		lsls	r0, r2, #28
 4969 01c0 06D5     		bpl	.L1050
 4970 01c2 08AB     		add	r3, sp, #32
 4971 01c4 4B44     		add	r3, r3, r9
 4972 01c6 2D20     		movs	r0, #45
 4973 01c8 03F8100C 		strb	r0, [r3, #-16]
 4974 01cc 01F10209 		add	r9, r1, #2
 4975              	.L1050:
 4976 01d0 12F0010F 		tst	r2, #1
 4977 01d4 0CBF     		ite	eq
 4978 01d6 4FF0200C 		moveq	ip, #32
 4979 01da 4FF0300C 		movne	ip, #48
 4980 01de 9107     		lsls	r1, r2, #30
 4981 01e0 CB46     		mov	fp, r9
 4982 01e2 4FF0000A 		mov	r10, #0
 4983 01e6 10D4     		bmi	.L1057
 4984              	.L1100:
 4985 01e8 B345     		cmp	fp, r6
 4986 01ea 0BF10103 		add	r3, fp, #1
 4987 01ee 0BD2     		bcs	.L1108
 4988 01f0 6046     		mov	r0, ip
 4989 01f2 2946     		mov	r1, r5
 4990 01f4 8DE80810 		stmia	sp, {r3, ip}
 4991 01f8 FFF7FEFF 		bl	f_putc
 4992 01fc 009B     		ldr	r3, [sp]
 4993 01fe 8244     		add	r10, r10, r0
 4994 0200 9B46     		mov	fp, r3
 4995 0202 DDF804C0 		ldr	ip, [sp, #4]
 4996 0206 EFE7     		b	.L1100
 4997              	.L1108:
 4998 0208 9B46     		mov	fp, r3
 4999              	.L1057:
 5000 020a 09F1FF39 		add	r9, r9, #-1
 5001 020e 18F80900 		ldrb	r0, [r8, r9]	@ zero_extendqisi2
 5002 0212 2946     		mov	r1, r5
 5003 0214 FFF7FEFF 		bl	f_putc
 5004 0218 8244     		add	r10, r10, r0
 5005 021a B9F1000F 		cmp	r9, #0
 5006 021e F4D1     		bne	.L1057
 5007              	.L1056:
 5008 0220 B345     		cmp	fp, r6
 5009 0222 07D2     		bcs	.L1102
 5010 0224 2020     		movs	r0, #32
 5011 0226 2946     		mov	r1, r5
 5012 0228 FFF7FEFF 		bl	f_putc
 5013 022c 0BF1010B 		add	fp, fp, #1
 5014 0230 8244     		add	r10, r10, r0
 5015 0232 F5E7     		b	.L1056
 5016              	.L1102:
 5017 0234 B0F1FF3F 		cmp	r0, #-1
 5018 0238 14BF     		ite	ne
 5019 023a 5046     		movne	r0, r10
 5020 023c 4FF0FF30 		moveq	r0, #-1
 5021              	.L1019:
 5022 0240 421C     		adds	r2, r0, #1
 5023 0242 0744     		add	r7, r7, r0
 5024 0244 07D0     		beq	.L1060
 5025 0246 2246     		mov	r2, r4
 5026 0248 E7E6     		b	.L1059
 5027              	.L1017:
 5028 024a B0F1FF3F 		cmp	r0, #-1
 5029 024e 14BF     		ite	ne
 5030 0250 3846     		movne	r0, r7
 5031 0252 4FF0FF30 		moveq	r0, #-1
 5032              	.L1060:
 5033 0256 08B0     		add	sp, sp, #32
 5034              		@ sp needed
 5035 0258 BDE8F04F 		pop	{r4, r5, r6, r7, r8, r9, r10, fp, lr}
 5036 025c 03B0     		add	sp, sp, #12
 5037 025e 7047     		bx	lr
 5039              		.section	.rodata.cst.4795,"a",%progbits
 5040              		.align	1
 5041              		.set	.LANCHOR6,. + 0
 5044              	cst.4795:
 5045 0000 0080     		.short	-32768
 5046 0002 0040     		.short	16384
 5047 0004 0020     		.short	8192
 5048 0006 0010     		.short	4096
 5049 0008 0008     		.short	2048
 5050 000a 0040     		.short	16384
 5051 000c 0020     		.short	8192
 5052 000e 0010     		.short	4096
 5053 0010 0008     		.short	2048
 5054 0012 0004     		.short	1024
 5055 0014 0002     		.short	512
 5056              		.section	.bss.CurrVol,"aw",%nobits
 5057              		.set	.LANCHOR0,. + 0
 5060              	CurrVol:
 5061 0000 00       		.space	1
 5062              		.section	.rodata.str1.1,"aMS",%progbits,1
 5063              	.LC0:
 5064 0000 222A3A3C 		.ascii	"\"*:<>?|\177\000"
 5064      3E3F7C7F 
 5064      00
 5065              	.LC1:
 5066 0009 2B2C3B3D 		.ascii	"+,;=[]\000"
 5066      5B5D00
 5067              	.LC2:
 5068 0010 EBFE904D 		.ascii	"\353\376\220MSDOS5.0\000"
 5068      53444F53 
 5068      352E3000 
 5069              	.LC3:
 5070 001c 4E4F204E 		.ascii	"NO NAME    FAT32   \000"
 5070      414D4520 
 5070      20202046 
 5070      41543332 
 5070      20202000 
 5071              	.LC4:
 5072 0030 4E4F204E 		.ascii	"NO NAME    FAT     \000"
 5072      414D4520 
 5072      20202046 
 5072      41542020 
 5072      20202000 
 5073              		.section	.bss.Fsid,"aw",%nobits
 5074              		.align	1
 5075              		.set	.LANCHOR2,. + 0
 5078              	Fsid:
 5079 0000 0000     		.space	2
 5080              		.section	.bss.LfnBuf,"aw",%nobits
 5081              		.align	1
 5082              		.set	.LANCHOR4,. + 0
 5085              	LfnBuf:
 5086 0000 00000000 		.space	130
 5086      00000000 
 5086      00000000 
 5086      00000000 
 5086      00000000 
 5087              		.section	.rodata.LfnOfs,"a",%progbits
 5088              		.set	.LANCHOR3,. + 0
 5091              	LfnOfs:
 5092 0000 01       		.byte	1
 5093 0001 03       		.byte	3
 5094 0002 05       		.byte	5
 5095 0003 07       		.byte	7
 5096 0004 09       		.byte	9
 5097 0005 0E       		.byte	14
 5098 0006 10       		.byte	16
 5099 0007 12       		.byte	18
 5100 0008 14       		.byte	20
 5101 0009 16       		.byte	22
 5102 000a 18       		.byte	24
 5103 000b 1C       		.byte	28
 5104 000c 1E       		.byte	30
 5105              		.section	.rodata.vst.4794,"a",%progbits
 5106              		.align	1
 5107              		.set	.LANCHOR5,. + 0
 5110              	vst.4794:
 5111 0000 0004     		.short	1024
 5112 0002 0002     		.short	512
 5113 0004 0001     		.short	256
 5114 0006 8000     		.short	128
 5115 0008 4000     		.short	64
 5116 000a 2000     		.short	32
 5117 000c 1000     		.short	16
 5118 000e 0800     		.short	8
 5119 0010 0400     		.short	4
 5120 0012 0200     		.short	2
 5121 0014 0000     		.short	0
 5122              		.section	.bss.FatFs,"aw",%nobits
 5123              		.align	2
 5124              		.set	.LANCHOR1,. + 0
 5127              	FatFs:
 5128 0000 00000000 		.space	4
 5129              		.ident	"GCC: (Sourcery CodeBench Lite 2013.11-24) 4.8.1"