   1              		.syntax unified
   2              		.cpu cortex-m3
   3              		.fpu softvfp
   4              		.eabi_attribute 20, 1
   5              		.eabi_attribute 21, 1
   6              		.eabi_attribute 23, 3
   7              		.eabi_attribute 24, 1
   8              		.eabi_attribute 25, 1
   9              		.eabi_attribute 26, 1
  10              		.eabi_attribute 30, 4
  11              		.eabi_attribute 34, 1
  12              		.eabi_attribute 18, 4
  13              		.thumb
  14              		.file	"drv_key.c"
  15              		.section	.text.key_init,"ax",%progbits
  16              		.align	1
  17              		.global	key_init
  18              		.thumb
  19              		.thumb_func
  21              	key_init:
  22              		@ args = 0, pretend = 0, frame = 8
  23              		@ frame_needed = 0, uses_anonymous_args = 0
  24 0000 0128     		cmp	r0, #1
  25 0002 73B5     		push	{r0, r1, r4, r5, r6, lr}
  26 0004 04D9     		bls	.L2
  27 0006 0D48     		ldr	r0, .L5
  28 0008 BA21     		movs	r1, #186
  29 000a FFF7FEFF 		bl	assert_err
  30 000e 12E0     		b	.L1
  31              	.L2:
  32 0010 0C24     		movs	r4, #12
  33 0012 4443     		muls	r4, r0, r4
  34 0014 0A4D     		ldr	r5, .L5+4
  35 0016 0121     		movs	r1, #1
  36 0018 2E19     		adds	r6, r5, r4
  37 001a 7068     		ldr	r0, [r6, #4]
  38 001c FFF7FEFF 		bl	RCC_APB2PeriphClockCmd
  39 0020 3389     		ldrh	r3, [r6, #8]
  40 0022 2859     		ldr	r0, [r5, r4]
  41 0024 ADF80430 		strh	r3, [sp, #4]	@ movhi
  42 0028 0423     		movs	r3, #4
  43 002a 0DEB0301 		add	r1, sp, r3
  44 002e 8DF80730 		strb	r3, [sp, #7]
  45 0032 FFF7FEFF 		bl	GPIO_Init
  46              	.L1:
  47 0036 02B0     		add	sp, sp, #8
  48              		@ sp needed
  49 0038 70BD     		pop	{r4, r5, r6, pc}
  50              	.L6:
  51 003a 00BF     		.align	2
  52              	.L5:
  53 003c 00000000 		.word	.LC0
  54 0040 00000000 		.word	.LANCHOR0
  56              		.section	.text.key_init_all,"ax",%progbits
  57              		.align	1
  58              		.global	key_init_all
  59              		.thumb
  60              		.thumb_func
  62              	key_init_all:
  63              		@ args = 0, pretend = 0, frame = 0
  64              		@ frame_needed = 0, uses_anonymous_args = 0
  65 0000 08B5     		push	{r3, lr}
  66 0002 0020     		movs	r0, #0
  67 0004 FFF7FEFF 		bl	key_init
  68 0008 BDE80840 		pop	{r3, lr}
  69 000c 0120     		movs	r0, #1
  70 000e FFF7FEBF 		b	key_init
  72              		.section	.text.key_scan_10ms,"ax",%progbits
  73              		.align	1
  74              		.global	key_scan_10ms
  75              		.thumb
  76              		.thumb_func
  78              	key_scan_10ms:
  79              		@ args = 0, pretend = 0, frame = 0
  80              		@ frame_needed = 0, uses_anonymous_args = 0
  81 0000 334B     		ldr	r3, .L25
  82 0002 344A     		ldr	r2, .L25+4
  83 0004 0021     		movs	r1, #0
  84 0006 10B5     		push	{r4, lr}
  85 0008 1980     		strh	r1, [r3]	@ movhi
  86 000a 9068     		ldr	r0, [r2, #8]
  87 000c 1C88     		ldrh	r4, [r3]
  88 000e 00F00100 		and	r0, r0, #1
  89 0012 A4B2     		uxth	r4, r4
  90 0014 80F00100 		eor	r0, r0, #1
  91 0018 2043     		orrs	r0, r0, r4
  92 001a 1880     		strh	r0, [r3]	@ movhi
  93 001c 9268     		ldr	r2, [r2, #8]
  94 001e 1888     		ldrh	r0, [r3]
  95 0020 82F00202 		eor	r2, r2, #2
  96 0024 80B2     		uxth	r0, r0
  97 0026 02F00202 		and	r2, r2, #2
  98 002a 0243     		orrs	r2, r2, r0
  99 002c 1A80     		strh	r2, [r3]	@ movhi
 100 002e 2A4A     		ldr	r2, .L25+8
 101 0030 1068     		ldr	r0, [r2]
 102 0032 0328     		cmp	r0, #3
 103 0034 4AD8     		bhi	.L8
 104 0036 DFE800F0 		tbb	[pc, r0]
 105              	.L11:
 106 003a 02       		.byte	(.L10-.L11)/2
 107 003b 0E       		.byte	(.L12-.L11)/2
 108 003c 20       		.byte	(.L13-.L11)/2
 109 003d 33       		.byte	(.L14-.L11)/2
 110              		.align	1
 111              	.L10:
 112 003e 1988     		ldrh	r1, [r3]
 113 0040 89B2     		uxth	r1, r1
 114 0042 09B1     		cbz	r1, .L15
 115 0044 0121     		movs	r1, #1
 116 0046 1160     		str	r1, [r2]
 117              	.L15:
 118 0048 0022     		movs	r2, #0
 119 004a 1A80     		strh	r2, [r3]	@ movhi
 120 004c 5A80     		strh	r2, [r3, #2]	@ movhi
 121 004e 9A80     		strh	r2, [r3, #4]	@ movhi
 122 0050 DA80     		strh	r2, [r3, #6]	@ movhi
 123 0052 1A81     		strh	r2, [r3, #8]	@ movhi
 124 0054 10BD     		pop	{r4, pc}
 125              	.L12:
 126 0056 1B88     		ldrh	r3, [r3]
 127 0058 1D49     		ldr	r1, .L25
 128 005a 9BB2     		uxth	r3, r3
 129 005c 002B     		cmp	r3, #0
 130 005e 34D0     		beq	.L24
 131 0060 0B88     		ldrh	r3, [r1]
 132 0062 1E48     		ldr	r0, .L25+12
 133 0064 9BB2     		uxth	r3, r3
 134 0066 0360     		str	r3, [r0]
 135 0068 4888     		ldrh	r0, [r1, #2]
 136 006a 80B2     		uxth	r0, r0
 137 006c 0343     		orrs	r3, r3, r0
 138 006e 4B80     		strh	r3, [r1, #2]	@ movhi
 139 0070 1B4B     		ldr	r3, .L25+16
 140 0072 0021     		movs	r1, #0
 141 0074 1960     		str	r1, [r3]
 142 0076 0223     		movs	r3, #2
 143 0078 27E0     		b	.L24
 144              	.L13:
 145 007a 5980     		strh	r1, [r3, #2]	@ movhi
 146 007c 1B88     		ldrh	r3, [r3]
 147 007e 1448     		ldr	r0, .L25
 148 0080 9BB2     		uxth	r3, r3
 149 0082 FBB1     		cbz	r3, .L19
 150 0084 164B     		ldr	r3, .L25+16
 151 0086 1968     		ldr	r1, [r3]
 152 0088 0131     		adds	r1, r1, #1
 153 008a 8229     		cmp	r1, #130
 154 008c 1960     		str	r1, [r3]
 155 008e 1DD9     		bls	.L8
 156 0090 1249     		ldr	r1, .L25+12
 157 0092 0988     		ldrh	r1, [r1]
 158 0094 8180     		strh	r1, [r0, #4]	@ movhi
 159 0096 C180     		strh	r1, [r0, #6]	@ movhi
 160 0098 0021     		movs	r1, #0
 161 009a 1960     		str	r1, [r3]
 162 009c 0323     		movs	r3, #3
 163 009e 14E0     		b	.L24
 164              	.L14:
 165 00a0 9980     		strh	r1, [r3, #4]	@ movhi
 166 00a2 D980     		strh	r1, [r3, #6]	@ movhi
 167 00a4 1B88     		ldrh	r3, [r3]
 168 00a6 0A48     		ldr	r0, .L25
 169 00a8 9BB2     		uxth	r3, r3
 170 00aa 5BB1     		cbz	r3, .L19
 171 00ac 0C4B     		ldr	r3, .L25+16
 172 00ae 1A68     		ldr	r2, [r3]
 173 00b0 0132     		adds	r2, r2, #1
 174 00b2 142A     		cmp	r2, #20
 175 00b4 1A60     		str	r2, [r3]
 176 00b6 09D9     		bls	.L8
 177 00b8 084A     		ldr	r2, .L25+12
 178 00ba 1288     		ldrh	r2, [r2]
 179 00bc C280     		strh	r2, [r0, #6]	@ movhi
 180 00be 0022     		movs	r2, #0
 181 00c0 1A60     		str	r2, [r3]
 182 00c2 10BD     		pop	{r4, pc}
 183              	.L19:
 184 00c4 0549     		ldr	r1, .L25+12
 185 00c6 0988     		ldrh	r1, [r1]
 186 00c8 0181     		strh	r1, [r0, #8]	@ movhi
 187              	.L24:
 188 00ca 1360     		str	r3, [r2]
 189              	.L8:
 190 00cc 10BD     		pop	{r4, pc}
 191              	.L26:
 192 00ce 00BF     		.align	2
 193              	.L25:
 194 00d0 00000000 		.word	.LANCHOR1
 195 00d4 000C0140 		.word	1073810432
 196 00d8 00000000 		.word	.LANCHOR2
 197 00dc 00000000 		.word	.LANCHOR3
 198 00e0 00000000 		.word	.LANCHOR4
 200              		.global	key_status
 201              		.section	.bss.temp_time.6071,"aw",%nobits
 202              		.align	2
 203              		.set	.LANCHOR4,. + 0
 206              	temp_time.6071:
 207 0000 00000000 		.space	4
 208              		.section	.rodata.str1.1,"aMS",%progbits,1
 209              	.LC0:
 210 0000 443A2F55 		.ascii	"D:/Users/draapho/Desktop/stm32_ezos_v231/drivers/dr"
 210      73657273 
 210      2F647261 
 210      6170686F 
 210      2F446573 
 211 0033 765F6B65 		.ascii	"v_key.c\000"
 211      792E6300 
 212              		.section	.bss.key_status_old.6070,"aw",%nobits
 213              		.align	2
 214              		.set	.LANCHOR3,. + 0
 217              	key_status_old.6070:
 218 0000 00000000 		.space	4
 219              		.section	.bss.key_status,"aw",%nobits
 220              		.align	1
 221              		.set	.LANCHOR1,. + 0
 224              	key_status:
 225 0000 00000000 		.space	10
 225      00000000 
 225      0000
 226              		.section	.bss.key_state.6069,"aw",%nobits
 227              		.align	2
 228              		.set	.LANCHOR2,. + 0
 231              	key_state.6069:
 232 0000 00000000 		.space	4
 233              		.section	.rodata.key_hw,"a",%progbits
 234              		.align	2
 235              		.set	.LANCHOR0,. + 0
 238              	key_hw:
 239 0000 000C0140 		.word	1073810432
 240 0004 08000000 		.word	8
 241 0008 0100     		.short	1
 242 000a 0000     		.space	2
 243 000c 000C0140 		.word	1073810432
 244 0010 08000000 		.word	8
 245 0014 0200     		.short	2
 246 0016 0000     		.space	2
 247              		.ident	"GCC: (Sourcery CodeBench Lite 2013.11-24) 4.8.1"