   1              		.syntax unified
   2              		.cpu cortex-m3
   3              		.fpu softvfp
   4              		.eabi_attribute 20, 1
   5              		.eabi_attribute 21, 1
   6              		.eabi_attribute 23, 3
   7              		.eabi_attribute 24, 1
   8              		.eabi_attribute 25, 1
   9              		.eabi_attribute 26, 1
  10              		.eabi_attribute 30, 4
  11              		.eabi_attribute 34, 1
  12              		.eabi_attribute 18, 4
  13              		.thumb
  14              		.file	"app_mail.c"
  15              		.section	.text.task_led,"ax",%progbits
  16              		.align	1
  17              		.thumb
  18              		.thumb_func
  20              	task_led:
  21              		@ args = 0, pretend = 0, frame = 8
  22              		@ frame_needed = 0, uses_anonymous_args = 0
  23 0000 07B5     		push	{r0, r1, r2, lr}
  24 0002 0C48     		ldr	r0, .L9
  25 0004 0DF10701 		add	r1, sp, #7
  26 0008 4FF0FF32 		mov	r2, #-1
  27 000c FFF7FEFF 		bl	ezos_mb_receive
  28 0010 0828     		cmp	r0, #8
  29 0012 0146     		mov	r1, r0
  30 0014 0BD0     		beq	.L1
  31 0016 20B9     		cbnz	r0, .L3
  32 0018 9DF80700 		ldrb	r0, [sp, #7]	@ zero_extendqisi2
  33 001c FFF7FEFF 		bl	led_toggle_gradual
  34 0020 02E0     		b	.L4
  35              	.L3:
  36 0022 0548     		ldr	r0, .L9+4
  37 0024 FFF7FEFF 		bl	printf
  38              	.L4:
  39 0028 0020     		movs	r0, #0
  40 002a FFF7FEFF 		bl	ezos_delay
  41              	.L1:
  42 002e 03B0     		add	sp, sp, #12
  43              		@ sp needed
  44 0030 5DF804FB 		ldr	pc, [sp], #4
  45              	.L10:
  46              		.align	2
  47              	.L9:
  48 0034 00000000 		.word	mb_key
  49 0038 00000000 		.word	.LC0
  51              		.section	.text.task_key,"ax",%progbits
  52              		.align	1
  53              		.thumb
  54              		.thumb_func
  56              	task_key:
  57              		@ args = 0, pretend = 0, frame = 0
  58              		@ frame_needed = 0, uses_anonymous_args = 0
  59 0000 08B5     		push	{r3, lr}
  60 0002 FFF7FEFF 		bl	key_scan_10ms
  61 0006 094B     		ldr	r3, .L16
  62 0008 5B88     		ldrh	r3, [r3, #2]
  63 000a 9BB2     		uxth	r3, r3
  64 000c 012B     		cmp	r3, #1
  65 000e 04D0     		beq	.L13
  66 0010 022B     		cmp	r3, #2
  67 0012 06D1     		bne	.L12
  68 0014 0648     		ldr	r0, .L16+4
  69 0016 0121     		movs	r1, #1
  70 0018 01E0     		b	.L15
  71              	.L13:
  72 001a 0548     		ldr	r0, .L16+4
  73 001c 0021     		movs	r1, #0
  74              	.L15:
  75 001e FFF7FEFF 		bl	ezos_mb_send
  76              	.L12:
  77 0022 BDE80840 		pop	{r3, lr}
  78 0026 0A20     		movs	r0, #10
  79 0028 FFF7FEBF 		b	ezos_delay
  80              	.L17:
  81              		.align	2
  82              	.L16:
  83 002c 00000000 		.word	key_status
  84 0030 00000000 		.word	mb_key
  86              		.section	.text.mail_start,"ax",%progbits
  87              		.align	1
  88              		.global	mail_start
  89              		.thumb
  90              		.thumb_func
  92              	mail_start:
  93              		@ args = 0, pretend = 0, frame = 0
  94              		@ frame_needed = 0, uses_anonymous_args = 0
  95 0000 07B5     		push	{r0, r1, r2, lr}
  96 0002 FFF7FEFF 		bl	led_init_all
  97 0006 FFF7FEFF 		bl	key_init_all
  98 000a 0C49     		ldr	r1, .L19
  99 000c 0A22     		movs	r2, #10
 100 000e 0C48     		ldr	r0, .L19+4
 101 0010 FFF7FEFF 		bl	ezos_mb_add
 102 0014 0B48     		ldr	r0, .L19+8
 103 0016 0022     		movs	r2, #0
 104 0018 0323     		movs	r3, #3
 105 001a 0093     		str	r3, [sp]
 106 001c 0146     		mov	r1, r0
 107 001e 1346     		mov	r3, r2
 108 0020 FFF7FEFF 		bl	ezos_add
 109 0024 0848     		ldr	r0, .L19+12
 110 0026 0022     		movs	r2, #0
 111 0028 0823     		movs	r3, #8
 112 002a 0093     		str	r3, [sp]
 113 002c 0146     		mov	r1, r0
 114 002e 1346     		mov	r3, r2
 115 0030 FFF7FEFF 		bl	ezos_add
 116 0034 03B0     		add	sp, sp, #12
 117              		@ sp needed
 118 0036 5DF804FB 		ldr	pc, [sp], #4
 119              	.L20:
 120 003a 00BF     		.align	2
 121              	.L19:
 122 003c 00000000 		.word	mb_buf
 123 0040 00000000 		.word	mb_key
 124 0044 00000000 		.word	task_key
 125 0048 00000000 		.word	task_led
 127              		.comm	mb_buf,10,1
 128              		.comm	mb_key,24,4
 129              		.section	.rodata.str1.1,"aMS",%progbits,1
 130              	.LC0:
 131 0000 6D625F6B 		.ascii	"mb_key: %d\015\012\000"
 131      65793A20 
 131      25640D0A 
 131      00
 132              		.ident	"GCC: (Sourcery CodeBench Lite 2013.11-24) 4.8.1"