   1              		.syntax unified
   2              		.cpu cortex-m3
   3              		.fpu softvfp
   4              		.eabi_attribute 20, 1
   5              		.eabi_attribute 21, 1
   6              		.eabi_attribute 23, 3
   7              		.eabi_attribute 24, 1
   8              		.eabi_attribute 25, 1
   9              		.eabi_attribute 26, 1
  10              		.eabi_attribute 30, 4
  11              		.eabi_attribute 34, 1
  12              		.eabi_attribute 18, 4
  13              		.thumb
  14              		.file	"irq_handler.c"
  15              		.section	.text.SysTick_Handler,"ax",%progbits
  16              		.align	1
  17              		.global	SysTick_Handler
  18              		.thumb
  19              		.thumb_func
  21              	SysTick_Handler:
  22              		@ args = 0, pretend = 0, frame = 0
  23              		@ frame_needed = 0, uses_anonymous_args = 0
  24 0000 08B5     		push	{r3, lr}
  25 0002 FFF7FEFF 		bl	wwatchdog_clear
  26 0006 FFF7FEFF 		bl	ezos_scan_tick
  27 000a FFF7FEFF 		bl	delay_scan_1ms
  28 000e FFF7FEFF 		bl	led_scan_1ms
  29 0012 BDE80840 		pop	{r3, lr}
  30 0016 FFF7FEBF 		b	uipsys_scan_1ms
  32              		.section	.text.NMI_Handler,"ax",%progbits
  33              		.align	1
  34              		.global	NMI_Handler
  35              		.thumb
  36              		.thumb_func
  38              	NMI_Handler:
  39              		@ args = 0, pretend = 0, frame = 0
  40              		@ frame_needed = 0, uses_anonymous_args = 0
  41              		@ link register save eliminated.
  42 0000 7047     		bx	lr
  44              		.section	.text.SVC_Handler,"ax",%progbits
  45              		.align	1
  46              		.global	SVC_Handler
  47              		.thumb
  48              		.thumb_func
  50              	SVC_Handler:
  51              		@ args = 0, pretend = 0, frame = 0
  52              		@ frame_needed = 0, uses_anonymous_args = 0
  53              		@ link register save eliminated.
  54 0000 7047     		bx	lr
  56              		.section	.text.PendSV_Handler,"ax",%progbits
  57              		.align	1
  58              		.global	PendSV_Handler
  59              		.thumb
  60              		.thumb_func
  62              	PendSV_Handler:
  63              		@ args = 0, pretend = 0, frame = 0
  64              		@ frame_needed = 0, uses_anonymous_args = 0
  65              		@ link register save eliminated.
  66 0000 7047     		bx	lr
  68              		.section	.text.DebugMon_Handler,"ax",%progbits
  69              		.align	1
  70              		.global	DebugMon_Handler
  71              		.thumb
  72              		.thumb_func
  74              	DebugMon_Handler:
  75              		@ args = 0, pretend = 0, frame = 0
  76              		@ frame_needed = 0, uses_anonymous_args = 0
  77              		@ link register save eliminated.
  78 0000 7047     		bx	lr
  80              		.section	.text.HardFault_Handler,"ax",%progbits
  81              		.align	1
  82              		.global	HardFault_Handler
  83              		.thumb
  84              		.thumb_func
  86              	HardFault_Handler:
  87              		@ Volatile: function does not return.
  88              		@ args = 0, pretend = 0, frame = 0
  89              		@ frame_needed = 0, uses_anonymous_args = 0
  90              		@ link register save eliminated.
  91              	.L7:
  92 0000 FEE7     		b	.L7
  94              		.section	.text.MemManage_Handler,"ax",%progbits
  95              		.align	1
  96              		.global	MemManage_Handler
  97              		.thumb
  98              		.thumb_func
 100              	MemManage_Handler:
 101              		@ Volatile: function does not return.
 102              		@ args = 0, pretend = 0, frame = 0
 103              		@ frame_needed = 0, uses_anonymous_args = 0
 104              		@ link register save eliminated.
 105              	.L9:
 106 0000 FEE7     		b	.L9
 108              		.section	.text.BusFault_Handler,"ax",%progbits
 109              		.align	1
 110              		.global	BusFault_Handler
 111              		.thumb
 112              		.thumb_func
 114              	BusFault_Handler:
 115              		@ Volatile: function does not return.
 116              		@ args = 0, pretend = 0, frame = 0
 117              		@ frame_needed = 0, uses_anonymous_args = 0
 118              		@ link register save eliminated.
 119              	.L11:
 120 0000 FEE7     		b	.L11
 122              		.section	.text.UsageFault_Handler,"ax",%progbits
 123              		.align	1
 124              		.global	UsageFault_Handler
 125              		.thumb
 126              		.thumb_func
 128              	UsageFault_Handler:
 129              		@ Volatile: function does not return.
 130              		@ args = 0, pretend = 0, frame = 0
 131              		@ frame_needed = 0, uses_anonymous_args = 0
 132              		@ link register save eliminated.
 133              	.L13:
 134 0000 FEE7     		b	.L13
 136              		.ident	"GCC: (Sourcery CodeBench Lite 2013.11-24) 4.8.1"