   1              		.syntax unified
   2              		.cpu cortex-m3
   3              		.fpu softvfp
   4              		.eabi_attribute 20, 1
   5              		.eabi_attribute 21, 1
   6              		.eabi_attribute 23, 3
   7              		.eabi_attribute 24, 1
   8              		.eabi_attribute 25, 1
   9              		.eabi_attribute 26, 1
  10              		.eabi_attribute 30, 4
  11              		.eabi_attribute 34, 1
  12              		.eabi_attribute 18, 4
  13              		.thumb
  14              		.file	"stm32f10x_cec.c"
  15              		.section	.text.CEC_DeInit,"ax",%progbits
  16              		.align	1
  17              		.global	CEC_DeInit
  18              		.thumb
  19              		.thumb_func
  21              	CEC_DeInit:
  22              		@ args = 0, pretend = 0, frame = 0
  23              		@ frame_needed = 0, uses_anonymous_args = 0
  24 0000 08B5     		push	{r3, lr}
  25 0002 4FF08040 		mov	r0, #1073741824
  26 0006 0121     		movs	r1, #1
  27 0008 FFF7FEFF 		bl	RCC_APB1PeriphResetCmd
  28 000c BDE80840 		pop	{r3, lr}
  29 0010 4FF08040 		mov	r0, #1073741824
  30 0014 0021     		movs	r1, #0
  31 0016 FFF7FEBF 		b	RCC_APB1PeriphResetCmd
  33              		.section	.text.CEC_Init,"ax",%progbits
  34              		.align	1
  35              		.global	CEC_Init
  36              		.thumb
  37              		.thumb_func
  39              	CEC_Init:
  40              		@ args = 0, pretend = 0, frame = 0
  41              		@ frame_needed = 0, uses_anonymous_args = 0
  42 0000 0388     		ldrh	r3, [r0]
  43 0002 10B5     		push	{r4, lr}
  44 0004 23F00403 		bic	r3, r3, #4
  45 0008 9BB2     		uxth	r3, r3
  46 000a 0446     		mov	r4, r0
  47 000c 1BB1     		cbz	r3, .L3
  48 000e 0C48     		ldr	r0, .L12
  49 0010 8C21     		movs	r1, #140
  50 0012 FFF7FEFF 		bl	assert_err
  51              	.L3:
  52 0016 6388     		ldrh	r3, [r4, #2]
  53 0018 23F00803 		bic	r3, r3, #8
  54 001c 9BB2     		uxth	r3, r3
  55 001e 1BB1     		cbz	r3, .L4
  56 0020 0748     		ldr	r0, .L12
  57 0022 8D21     		movs	r1, #141
  58 0024 FFF7FEFF 		bl	assert_err
  59              	.L4:
  60 0028 064B     		ldr	r3, .L12+4
  61 002a 6088     		ldrh	r0, [r4, #2]
  62 002c 1968     		ldr	r1, [r3]
  63 002e 2288     		ldrh	r2, [r4]
  64 0030 01F0F301 		and	r1, r1, #243
  65 0034 0243     		orrs	r2, r2, r0
  66 0036 0A43     		orrs	r2, r2, r1
  67 0038 92B2     		uxth	r2, r2
  68 003a 1A60     		str	r2, [r3]
  69 003c 10BD     		pop	{r4, pc}
  70              	.L13:
  71 003e 00BF     		.align	2
  72              	.L12:
  73 0040 00000000 		.word	.LC0
  74 0044 00780040 		.word	1073772544
  76              		.section	.text.CEC_Cmd,"ax",%progbits
  77              		.align	1
  78              		.global	CEC_Cmd
  79              		.thumb
  80              		.thumb_func
  82              	CEC_Cmd:
  83              		@ args = 0, pretend = 0, frame = 0
  84              		@ frame_needed = 0, uses_anonymous_args = 0
  85 0000 0128     		cmp	r0, #1
  86 0002 10B5     		push	{r4, lr}
  87 0004 0446     		mov	r4, r0
  88 0006 03D9     		bls	.L15
  89 0008 0548     		ldr	r0, .L21
  90 000a A721     		movs	r1, #167
  91 000c FFF7FEFF 		bl	assert_err
  92              	.L15:
  93 0010 044B     		ldr	r3, .L21+4
  94 0012 1C60     		str	r4, [r3]
  95 0014 1CB9     		cbnz	r4, .L14
  96 0016 044A     		ldr	r2, .L21+8
  97              	.L17:
  98 0018 1368     		ldr	r3, [r2]
  99 001a DB07     		lsls	r3, r3, #31
 100 001c FCD4     		bmi	.L17
 101              	.L14:
 102 001e 10BD     		pop	{r4, pc}
 103              	.L22:
 104              		.align	2
 105              	.L21:
 106 0020 00000000 		.word	.LC0
 107 0024 00000F42 		.word	1108279296
 108 0028 00780040 		.word	1073772544
 110              		.section	.text.CEC_ITConfig,"ax",%progbits
 111              		.align	1
 112              		.global	CEC_ITConfig
 113              		.thumb
 114              		.thumb_func
 116              	CEC_ITConfig:
 117              		@ args = 0, pretend = 0, frame = 0
 118              		@ frame_needed = 0, uses_anonymous_args = 0
 119 0000 0128     		cmp	r0, #1
 120 0002 10B5     		push	{r4, lr}
 121 0004 0446     		mov	r4, r0
 122 0006 03D9     		bls	.L24
 123 0008 0348     		ldr	r0, .L25
 124 000a BD21     		movs	r1, #189
 125 000c FFF7FEFF 		bl	assert_err
 126              	.L24:
 127 0010 024B     		ldr	r3, .L25+4
 128 0012 1C60     		str	r4, [r3]
 129 0014 10BD     		pop	{r4, pc}
 130              	.L26:
 131 0016 00BF     		.align	2
 132              	.L25:
 133 0018 00000000 		.word	.LC0
 134 001c 04000F42 		.word	1108279300
 136              		.section	.text.CEC_OwnAddressConfig,"ax",%progbits
 137              		.align	1
 138              		.global	CEC_OwnAddressConfig
 139              		.thumb
 140              		.thumb_func
 142              	CEC_OwnAddressConfig:
 143              		@ args = 0, pretend = 0, frame = 0
 144              		@ frame_needed = 0, uses_anonymous_args = 0
 145 0000 0F28     		cmp	r0, #15
 146 0002 10B5     		push	{r4, lr}
 147 0004 0446     		mov	r4, r0
 148 0006 03D9     		bls	.L28
 149 0008 0348     		ldr	r0, .L29
 150 000a CA21     		movs	r1, #202
 151 000c FFF7FEFF 		bl	assert_err
 152              	.L28:
 153 0010 024B     		ldr	r3, .L29+4
 154 0012 5C60     		str	r4, [r3, #4]
 155 0014 10BD     		pop	{r4, pc}
 156              	.L30:
 157 0016 00BF     		.align	2
 158              	.L29:
 159 0018 00000000 		.word	.LC0
 160 001c 00780040 		.word	1073772544
 162              		.section	.text.CEC_SetPrescaler,"ax",%progbits
 163              		.align	1
 164              		.global	CEC_SetPrescaler
 165              		.thumb
 166              		.thumb_func
 168              	CEC_SetPrescaler:
 169              		@ args = 0, pretend = 0, frame = 0
 170              		@ frame_needed = 0, uses_anonymous_args = 0
 171 0000 B0F5804F 		cmp	r0, #16384
 172 0004 10B5     		push	{r4, lr}
 173 0006 0446     		mov	r4, r0
 174 0008 03D3     		bcc	.L32
 175 000a 0348     		ldr	r0, .L33
 176 000c D821     		movs	r1, #216
 177 000e FFF7FEFF 		bl	assert_err
 178              	.L32:
 179 0012 024B     		ldr	r3, .L33+4
 180 0014 9C60     		str	r4, [r3, #8]
 181 0016 10BD     		pop	{r4, pc}
 182              	.L34:
 183              		.align	2
 184              	.L33:
 185 0018 00000000 		.word	.LC0
 186 001c 00780040 		.word	1073772544
 188              		.section	.text.CEC_SendDataByte,"ax",%progbits
 189              		.align	1
 190              		.global	CEC_SendDataByte
 191              		.thumb
 192              		.thumb_func
 194              	CEC_SendDataByte:
 195              		@ args = 0, pretend = 0, frame = 0
 196              		@ frame_needed = 0, uses_anonymous_args = 0
 197              		@ link register save eliminated.
 198 0000 014B     		ldr	r3, .L36
 199 0002 5861     		str	r0, [r3, #20]
 200 0004 7047     		bx	lr
 201              	.L37:
 202 0006 00BF     		.align	2
 203              	.L36:
 204 0008 00780040 		.word	1073772544
 206              		.section	.text.CEC_ReceiveDataByte,"ax",%progbits
 207              		.align	1
 208              		.global	CEC_ReceiveDataByte
 209              		.thumb
 210              		.thumb_func
 212              	CEC_ReceiveDataByte:
 213              		@ args = 0, pretend = 0, frame = 0
 214              		@ frame_needed = 0, uses_anonymous_args = 0
 215              		@ link register save eliminated.
 216 0000 014B     		ldr	r3, .L39
 217 0002 9869     		ldr	r0, [r3, #24]
 218 0004 C0B2     		uxtb	r0, r0
 219 0006 7047     		bx	lr
 220              	.L40:
 221              		.align	2
 222              	.L39:
 223 0008 00780040 		.word	1073772544
 225              		.section	.text.CEC_StartOfMessage,"ax",%progbits
 226              		.align	1
 227              		.global	CEC_StartOfMessage
 228              		.thumb
 229              		.thumb_func
 231              	CEC_StartOfMessage:
 232              		@ args = 0, pretend = 0, frame = 0
 233              		@ frame_needed = 0, uses_anonymous_args = 0
 234              		@ link register save eliminated.
 235 0000 014B     		ldr	r3, .L42
 236 0002 0122     		movs	r2, #1
 237 0004 1A60     		str	r2, [r3]
 238 0006 7047     		bx	lr
 239              	.L43:
 240              		.align	2
 241              	.L42:
 242 0008 00020F42 		.word	1108279808
 244              		.section	.text.CEC_EndOfMessageCmd,"ax",%progbits
 245              		.align	1
 246              		.global	CEC_EndOfMessageCmd
 247              		.thumb
 248              		.thumb_func
 250              	CEC_EndOfMessageCmd:
 251              		@ args = 0, pretend = 0, frame = 0
 252              		@ frame_needed = 0, uses_anonymous_args = 0
 253 0000 0128     		cmp	r0, #1
 254 0002 10B5     		push	{r4, lr}
 255 0004 0446     		mov	r4, r0
 256 0006 04D9     		bls	.L45
 257 0008 0348     		ldr	r0, .L46
 258 000a 40F20911 		movw	r1, #265
 259 000e FFF7FEFF 		bl	assert_err
 260              	.L45:
 261 0012 024B     		ldr	r3, .L46+4
 262 0014 1C60     		str	r4, [r3]
 263 0016 10BD     		pop	{r4, pc}
 264              	.L47:
 265              		.align	2
 266              	.L46:
 267 0018 00000000 		.word	.LC0
 268 001c 04020F42 		.word	1108279812
 270              		.section	.text.CEC_GetFlagStatus,"ax",%progbits
 271              		.align	1
 272              		.global	CEC_GetFlagStatus
 273              		.thumb
 274              		.thumb_func
 276              	CEC_GetFlagStatus:
 277              		@ args = 0, pretend = 0, frame = 0
 278              		@ frame_needed = 0, uses_anonymous_args = 0
 279 0000 1D4B     		ldr	r3, .L79
 280 0002 10B5     		push	{r4, lr}
 281 0004 9842     		cmp	r0, r3
 282 0006 0446     		mov	r4, r0
 283 0008 28D0     		beq	.L49
 284 000a 03F58033 		add	r3, r3, #65536
 285 000e 9842     		cmp	r0, r3
 286 0010 24D0     		beq	.L49
 287 0012 03F50033 		add	r3, r3, #131072
 288 0016 9842     		cmp	r0, r3
 289 0018 20D0     		beq	.L49
 290 001a 03F58023 		add	r3, r3, #262144
 291 001e 9842     		cmp	r0, r3
 292 0020 1CD0     		beq	.L49
 293 0022 03F50023 		add	r3, r3, #524288
 294 0026 9842     		cmp	r0, r3
 295 0028 18D0     		beq	.L49
 296 002a B0F1815F 		cmp	r0, #270532608
 297 002e 15D0     		beq	.L49
 298 0030 B0F1825F 		cmp	r0, #272629760
 299 0034 12D0     		beq	.L49
 300 0036 0228     		cmp	r0, #2
 301 0038 10D0     		beq	.L49
 302 003a 0428     		cmp	r0, #4
 303 003c 0ED0     		beq	.L49
 304 003e 0828     		cmp	r0, #8
 305 0040 0CD0     		beq	.L49
 306 0042 1028     		cmp	r0, #16
 307 0044 0AD0     		beq	.L49
 308 0046 2028     		cmp	r0, #32
 309 0048 08D0     		beq	.L49
 310 004a 4028     		cmp	r0, #64
 311 004c 06D0     		beq	.L49
 312 004e 8028     		cmp	r0, #128
 313 0050 04D0     		beq	.L49
 314 0052 0A48     		ldr	r0, .L79+4
 315 0054 40F22911 		movw	r1, #297
 316 0058 FFF7FEFF 		bl	assert_err
 317              	.L49:
 318 005c 24F07F43 		bic	r3, r4, #-16777216
 319 0060 240F     		lsrs	r4, r4, #28
 320 0062 16BF     		itet	ne
 321 0064 064A     		ldrne	r2, .L79+8
 322 0066 074A     		ldreq	r2, .L79+12
 323 0068 1B0C     		lsrne	r3, r3, #16
 324 006a 1268     		ldr	r2, [r2]
 325 006c 1A42     		tst	r2, r3
 326 006e 0CBF     		ite	eq
 327 0070 0020     		moveq	r0, #0
 328 0072 0120     		movne	r0, #1
 329 0074 10BD     		pop	{r4, pc}
 330              	.L80:
 331 0076 00BF     		.align	2
 332              	.L79:
 333 0078 00000110 		.word	268500992
 334 007c 00000000 		.word	.LC0
 335 0080 0C780040 		.word	1073772556
 336 0084 10780040 		.word	1073772560
 338              		.section	.text.CEC_ClearFlag,"ax",%progbits
 339              		.align	1
 340              		.global	CEC_ClearFlag
 341              		.thumb
 342              		.thumb_func
 344              	CEC_ClearFlag:
 345              		@ args = 0, pretend = 0, frame = 0
 346              		@ frame_needed = 0, uses_anonymous_args = 0
 347 0000 30F0FC03 		bics	r3, r0, #252
 348 0004 10B5     		push	{r4, lr}
 349 0006 0446     		mov	r4, r0
 350 0008 00D1     		bne	.L82
 351 000a 20B9     		cbnz	r0, .L83
 352              	.L82:
 353 000c 0848     		ldr	r0, .L84
 354 000e 4FF4B171 		mov	r1, #354
 355 0012 FFF7FEFF 		bl	assert_err
 356              	.L83:
 357 0016 074B     		ldr	r3, .L84+4
 358 0018 E443     		mvns	r4, r4
 359 001a 1969     		ldr	r1, [r3, #16]
 360 001c 24F00304 		bic	r4, r4, #3
 361 0020 1A69     		ldr	r2, [r3, #16]
 362 0022 01F00201 		and	r1, r1, #2
 363 0026 0C43     		orrs	r4, r4, r1
 364 0028 1440     		ands	r4, r4, r2
 365 002a 1C61     		str	r4, [r3, #16]
 366 002c 10BD     		pop	{r4, pc}
 367              	.L85:
 368 002e 00BF     		.align	2
 369              	.L84:
 370 0030 00000000 		.word	.LC0
 371 0034 00780040 		.word	1073772544
 373              		.section	.text.CEC_GetITStatus,"ax",%progbits
 374              		.align	1
 375              		.global	CEC_GetITStatus
 376              		.thumb
 377              		.thumb_func
 379              	CEC_GetITStatus:
 380              		@ args = 0, pretend = 0, frame = 0
 381              		@ frame_needed = 0, uses_anonymous_args = 0
 382 0000 0428     		cmp	r0, #4
 383 0002 10B5     		push	{r4, lr}
 384 0004 0446     		mov	r4, r0
 385 0006 0AD0     		beq	.L87
 386 0008 0828     		cmp	r0, #8
 387 000a 08D0     		beq	.L87
 388 000c 4028     		cmp	r0, #64
 389 000e 06D0     		beq	.L87
 390 0010 8028     		cmp	r0, #128
 391 0012 04D0     		beq	.L87
 392 0014 0648     		ldr	r0, .L102
 393 0016 4FF4BD71 		mov	r1, #378
 394 001a FFF7FEFF 		bl	assert_err
 395              	.L87:
 396 001e 054B     		ldr	r3, .L102+4
 397 0020 1A68     		ldr	r2, [r3]
 398 0022 1B69     		ldr	r3, [r3, #16]
 399 0024 14EA0300 		ands	r0, r4, r3
 400 0028 18BF     		it	ne
 401 002a C2F34000 		ubfxne	r0, r2, #1, #1
 402 002e 10BD     		pop	{r4, pc}
 403              	.L103:
 404              		.align	2
 405              	.L102:
 406 0030 00000000 		.word	.LC0
 407 0034 00780040 		.word	1073772544
 409              		.section	.text.CEC_ClearITPendingBit,"ax",%progbits
 410              		.align	1
 411              		.global	CEC_ClearITPendingBit
 412              		.thumb
 413              		.thumb_func
 415              	CEC_ClearITPendingBit:
 416              		@ args = 0, pretend = 0, frame = 0
 417              		@ frame_needed = 0, uses_anonymous_args = 0
 418 0000 0428     		cmp	r0, #4
 419 0002 10B5     		push	{r4, lr}
 420 0004 0446     		mov	r4, r0
 421 0006 0AD0     		beq	.L105
 422 0008 0828     		cmp	r0, #8
 423 000a 08D0     		beq	.L105
 424 000c 4028     		cmp	r0, #64
 425 000e 06D0     		beq	.L105
 426 0010 8028     		cmp	r0, #128
 427 0012 04D0     		beq	.L105
 428 0014 0848     		ldr	r0, .L118
 429 0016 40F29D11 		movw	r1, #413
 430 001a FFF7FEFF 		bl	assert_err
 431              	.L105:
 432 001e 074B     		ldr	r3, .L118+4
 433 0020 E443     		mvns	r4, r4
 434 0022 1969     		ldr	r1, [r3, #16]
 435 0024 24F00304 		bic	r4, r4, #3
 436 0028 1A69     		ldr	r2, [r3, #16]
 437 002a 01F00201 		and	r1, r1, #2
 438 002e 0C43     		orrs	r4, r4, r1
 439 0030 1440     		ands	r4, r4, r2
 440 0032 1C61     		str	r4, [r3, #16]
 441 0034 10BD     		pop	{r4, pc}
 442              	.L119:
 443 0036 00BF     		.align	2
 444              	.L118:
 445 0038 00000000 		.word	.LC0
 446 003c 00780040 		.word	1073772544
 448              		.section	.rodata.str1.1,"aMS",%progbits,1
 449              	.LC0:
 450 0000 443A2F55 		.ascii	"D:/Users/draapho/Desktop/stm32_ezos_v231/drivers/li"
 450      73657273 
 450      2F647261 
 450      6170686F 
 450      2F446573 
 451 0033 62726172 		.ascii	"braries/STM32F10x_StdPeriph_Driver/src/stm32f10x_ce"
 451      6965732F 
 451      53544D33 
 451      32463130 
 451      785F5374 
 452 0066 632E6300 		.ascii	"c.c\000"
 453              		.ident	"GCC: (Sourcery CodeBench Lite 2013.11-24) 4.8.1"